         File: itest1
         Type: FMAGIC (0407) relocatable
Section .text: 7282 bytes
Section .data: 0 bytes
 Section .bss: 0 bytes
 Symbol table: 322 names (3864 bytes)
Entry address: 0

Disassembly of section .text:
000000 <.text>:
     0: 000002              	rti
     2: 000000              	halt
     4: 000006              	rtt
     6: 000000              	halt
    10: 000012              	.word	10
    12: 000000              	halt
    14: 000016              	.word	14
    16: 000000              	halt
    20: 000022              	.word	18
    22: 000000              	halt
    24: 000026              	.word	22
    26: 000000              	halt
    30: 015010              	mov	*-(r0), (r0)
    32: 000000              	halt
    34: 015532              	mov	*-(r5), *(r2)+
    36: 000000              	halt
    40: 000042              	.word	34
    42: 000000              	halt
    44: 000046              	.word	38
    46: 000000              	halt
    50: 000052              	.word	42
    52: 000000              	halt
    54: 000056              	.word	46
    56: 000000              	halt
    60: 000062              	.word	50
    62: 000000              	halt
    64: 000066              	.word	54
    66: 000000              	halt
    70: 000072              	.word	58
    72: 000000              	halt
    74: 000076              	.word	62
    76: 000000              	halt
   100: 000000              	halt
   102: 000000              	halt
   104: 000000              	halt
   106: 000000              	halt
   110: 000000              	halt
   112: 000000              	halt
   114: 000000              	halt
   116: 000000              	halt
   120: 000000              	halt
   122: 000000              	halt
   124: 000000              	halt
   126: 000000              	halt
   130: 000000              	halt
   132: 000000              	halt
   134: 000000              	halt
   136: 000000              	halt
   140: 000000              	halt
   142: 000000              	halt
   144: 000000              	halt
   146: 000000              	halt
   150: 000000              	halt
   152: 000000              	halt
   154: 000000              	halt
   156: 000000              	halt
   160: 000000              	halt
   162: 000000              	halt
   164: 000000              	halt
   166: 000000              	halt
   170: 000000              	halt
   172: 000000              	halt
   174: 000000              	halt
   176: 000000              	halt
000200 <BEGIN>:
   200: 012706 016114       	mov	$7244, sp
   204: 012767 000200 015374	mov	$128, $015606 <RETURN>
   212: 012767 004000 015362	mov	$2048, $015602 <ICOUNT>
   220: 104400              	sys	0
   222: 012700 177770       	mov	$-8, r0
   226: 026027 015754 125252	cmp	7148(r0), $-21846
   234: 001401              	beq	0240 <BEGIN+040>
   236: 104000              	emt	0
   240: 104400              	sys	0
   242: 012700 177770       	mov	$-8, r0
   246: 022760 125252 015754	cmp	$-21846, 7148(r0)
   254: 001401              	beq	0260 <BEGIN+060>
   256: 104000              	emt	0
   260: 104400              	sys	0
   262: 012700 000010       	mov	$8, r0
   266: 026027 015754 052525	cmp	7148(r0), $21845
   274: 001401              	beq	0300 <BEGIN+0100>
   276: 104000              	emt	0
   300: 104400              	sys	0
   302: 012700 000010       	mov	$8, r0
   306: 022760 052525 015754	cmp	$21845, 7148(r0)
   314: 001401              	beq	0320 <BEGIN+0120>
   316: 104000              	emt	0
   320: 104400              	sys	0
   322: 012700 177770       	mov	$-8, r0
   326: 026060 015754 015754	cmp	7148(r0), 7148(r0)
   334: 001401              	beq	0340 <BEGIN+0140>
   336: 104000              	emt	0
   340: 104400              	sys	0
   342: 012700 000010       	mov	$8, r0
   346: 026060 015754 015754	cmp	7148(r0), 7148(r0)
   354: 001401              	beq	0360 <BEGIN+0160>
   356: 104000              	emt	0
   360: 104400              	sys	0
   362: 012700 177770       	mov	$-8, r0
   366: 012701 000004       	mov	$4, r1
   372: 026061 015754 015754	cmp	7148(r0), 7148(r1)
   400: 001401              	beq	0404 <BEGIN+0204>
   402: 104000              	emt	0
   404: 104400              	sys	0
   406: 026160 015754 015754	cmp	7148(r1), 7148(r0)
   414: 001401              	beq	0420 <BEGIN+0220>
   416: 104000              	emt	0
   420: 104400              	sys	0
   422: 012700 177774       	mov	$-4, r0
   426: 012701 000010       	mov	$8, r1
   432: 026061 015754 015754	cmp	7148(r0), 7148(r1)
   440: 001401              	beq	0444 <BEGIN+0244>
   442: 104000              	emt	0
   444: 104400              	sys	0
   446: 012700 177774       	mov	$-4, r0
   452: 012701 000010       	mov	$8, r1
   456: 026160 015754 015754	cmp	7148(r1), 7148(r0)
   464: 001401              	beq	0470 <BEGIN+0270>
   466: 104000              	emt	0
   470: 104400              	sys	0
000472 <PAGE03>:
   472: 012700 177770       	mov	$-8, r0
   476: 016067 015754 015272	mov	7148(r0), $015776 <TEMP>
   504: 026727 015266 125252	cmp	$015776 <TEMP>, $-21846
   512: 001401              	beq	0516 <PAGE03+024>
   514: 104000              	emt	0
   516: 104400              	sys	0
   520: 012700 000010       	mov	$8, r0
   524: 016067 015754 015244	mov	7148(r0), $015776 <TEMP>
   532: 026727 015240 052525	cmp	$015776 <TEMP>, $21845
   540: 001401              	beq	0544 <PAGE03+052>
   542: 104000              	emt	0
   544: 104400              	sys	0
   546: 012700 177770       	mov	$-8, r0
   552: 012760 125252 015776	mov	$-21846, 7166(r0)
   560: 026727 015202 125252	cmp	$015766 <C>, $-21846
   566: 001401              	beq	0572 <PAGE03+0100>
   570: 104000              	emt	0
   572: 104400              	sys	0
   574: 012700 000010       	mov	$8, r0
   600: 012760 052525 015776	mov	$21845, 7166(r0)
   606: 026727 015174 052525	cmp	$016006 <D>, $21845
   614: 001401              	beq	0620 <PAGE03+0126>
   616: 104000              	emt	0
   620: 104400              	sys	0
   622: 012767 177777 015146	mov	$-1, $015776 <TEMP>
   630: 012700 177770       	mov	$-8, r0
   634: 046067 015754 015134	bic	7148(r0), $015776 <TEMP>
   642: 026727 015130 052525	cmp	$015776 <TEMP>, $21845
   650: 001401              	beq	0654 <PAGE03+0162>
   652: 104000              	emt	0
   654: 104400              	sys	0
   656: 012767 177777 015112	mov	$-1, $015776 <TEMP>
   664: 012700 000010       	mov	$8, r0
   670: 046067 015754 015100	bic	7148(r0), $015776 <TEMP>
   676: 026727 015074 125252	cmp	$015776 <TEMP>, $-21846
   704: 001401              	beq	0710 <PAGE03+0216>
   706: 104000              	emt	0
   710: 104400              	sys	0
   712: 012767 177777 015066	mov	$-1, $016006 <D>
   720: 012700 000010       	mov	$8, r0
   724: 042760 125252 015776	bic	$-21846, 7166(r0)
   732: 026727 015050 052525	cmp	$016006 <D>, $21845
   740: 001401              	beq	0744 <PAGE03+0252>
   742: 104000              	emt	0
   744: 104400              	sys	0
   746: 012700 177770       	mov	$-8, r0
   752: 012767 177777 015006	mov	$-1, $015766 <C>
   760: 042767 052525 015000	bic	$21845, $015766 <C>
   766: 026727 014774 125252	cmp	$015766 <C>, $-21846
   774: 001401              	beq	01000 <PAGE03+0306>
   776: 104000              	emt	0
  1000: 104400              	sys	0
001002 <PAGE04>:
  1002: 012767 125252 014766	mov	$-21846, $015776 <TEMP>
  1010: 012700 177770       	mov	$-8, r0
  1014: 166067 015754 014754	sub	7148(r0), $015776 <TEMP>
  1022: 001401              	beq	01026 <PAGE04+024>
  1024: 104000              	emt	0
  1026: 104400              	sys	0
  1030: 012767 125252 014740	mov	$-21846, $015776 <TEMP>
  1036: 012700 177770       	mov	$-8, r0
  1042: 166760 014676 016006	sub	$015744 <B>, 7174(r0)
  1050: 001401              	beq	01054 <PAGE04+052>
  1052: 104000              	emt	0
  1054: 104400              	sys	0
  1056: 012767 052525 014712	mov	$21845, $015776 <TEMP>
  1064: 012700 000010       	mov	$8, r0
  1070: 166067 015754 014700	sub	7148(r0), $015776 <TEMP>
  1076: 001401              	beq	01102 <PAGE04+0100>
  1100: 104000              	emt	0
  1102: 104400              	sys	0
  1104: 012767 052525 014664	mov	$21845, $015776 <TEMP>
  1112: 012700 000010       	mov	$8, r0
  1116: 166760 014642 015766	sub	$015764 <A+010>, 7158(r0)
  1124: 001401              	beq	01130 <PAGE04+0126>
  1126: 104000              	emt	0
  1130: 104400              	sys	0
  1132: 012767 177777 014636	mov	$-1, $015776 <TEMP>
  1140: 012700 177770       	mov	$-8, r0
  1144: 005060 016006       	clr	7174(r0)
  1150: 005767 014622       	tst	$015776 <TEMP>
  1154: 001401              	beq	01160 <PAGE04+0156>
  1156: 104000              	emt	0
  1160: 104400              	sys	0
  1162: 012767 177777 014606	mov	$-1, $015776 <TEMP>
  1170: 012700 000010       	mov	$8, r0
  1174: 005060 015766       	clr	7158(r0)
  1200: 005767 014572       	tst	$015776 <TEMP>
  1204: 001401              	beq	01210 <PAGE04+0206>
  1206: 104000              	emt	0
  1210: 104400              	sys	0
  1212: 012767 177777 014556	mov	$-1, $015776 <TEMP>
  1220: 012700 177770       	mov	$-8, r0
  1224: 005160 016006       	com	7174(r0)
  1230: 005767 014542       	tst	$015776 <TEMP>
  1234: 001401              	beq	01240 <PAGE04+0236>
  1236: 104000              	emt	0
  1240: 104400              	sys	0
  1242: 012767 177777 014526	mov	$-1, $015776 <TEMP>
  1250: 012700 000010       	mov	$8, r0
  1254: 005160 015766       	com	7158(r0)
  1260: 005767 014512       	tst	$015776 <TEMP>
  1264: 001401              	beq	01270 <PAGE04+0266>
  1266: 104000              	emt	0
  1270: 104400              	sys	0
001272 <PAGE05>:
  1272: 012767 177777 014476	mov	$-1, $015776 <TEMP>
  1300: 012700 177770       	mov	$-8, r0
  1304: 005260 016006       	inc	7174(r0)
  1310: 005767 014462       	tst	$015776 <TEMP>
  1314: 001401              	beq	01320 <PAGE05+026>
  1316: 104000              	emt	0
  1320: 104400              	sys	0
  1322: 012767 177777 014446	mov	$-1, $015776 <TEMP>
  1330: 012700 000010       	mov	$8, r0
  1334: 005260 015766       	inc	7158(r0)
  1340: 005767 014432       	tst	$015776 <TEMP>
  1344: 001401              	beq	01350 <PAGE05+056>
  1346: 104000              	emt	0
  1350: 104400              	sys	0
  1352: 012767 000001 014416	mov	$1, $015776 <TEMP>
  1360: 012700 177770       	mov	$-8, r0
  1364: 005360 016006       	dec	7174(r0)
  1370: 005767 014402       	tst	$015776 <TEMP>
  1374: 001401              	beq	01400 <PAGE05+0106>
  1376: 104000              	emt	0
  1400: 104400              	sys	0
  1402: 012767 000001 014366	mov	$1, $015776 <TEMP>
  1410: 012700 000010       	mov	$8, r0
  1414: 005360 015766       	dec	7158(r0)
  1420: 005767 014352       	tst	$015776 <TEMP>
  1424: 001401              	beq	01430 <PAGE05+0136>
  1426: 104000              	emt	0
  1430: 104400              	sys	0
  1432: 012767 000001 014336	mov	$1, $015776 <TEMP>
  1440: 012700 177770       	mov	$-8, r0
  1444: 005460 016006       	neg	7174(r0)
  1450: 022767 177777 014320	cmp	$-1, $015776 <TEMP>
  1456: 001401              	beq	01462 <PAGE05+0170>
  1460: 104000              	emt	0
  1462: 104400              	sys	0
  1464: 012767 000001 014304	mov	$1, $015776 <TEMP>
  1472: 012700 000010       	mov	$8, r0
  1476: 005460 015766       	neg	7158(r0)
  1502: 022767 177777 014266	cmp	$-1, $015776 <TEMP>
  1510: 001401              	beq	01514 <PAGE05+0222>
  1512: 104000              	emt	0
  1514: 104400              	sys	0
  1516: 012767 177777 014252	mov	$-1, $015776 <TEMP>
  1524: 012700 177770       	mov	$-8, r0
  1530: 000261              	.word	177
  1532: 005560 016006       	adc	7174(r0)
  1536: 005767 014234       	tst	$015776 <TEMP>
  1542: 001401              	beq	01546 <PAGE05+0254>
  1544: 104000              	emt	0
  1546: 104400              	sys	0
  1550: 012767 177777 014220	mov	$-1, $015776 <TEMP>
  1556: 012700 000010       	mov	$8, r0
  1562: 000261              	.word	177
  1564: 005560 015766       	adc	7158(r0)
  1570: 005767 014202       	tst	$015776 <TEMP>
  1574: 001401              	beq	01600 <PAGE05+0306>
  1576: 104000              	emt	0
  1600: 104400              	sys	0
001602 <PAGE06>:
  1602: 012767 000001 014166	mov	$1, $015776 <TEMP>
  1610: 012700 177770       	mov	$-8, r0
  1614: 000261              	.word	177
  1616: 005660 016006       	sbc	7174(r0)
  1622: 005767 014150       	tst	$015776 <TEMP>
  1626: 001401              	beq	01632 <PAGE06+030>
  1630: 104000              	emt	0
  1632: 104400              	sys	0
  1634: 012767 000001 014134	mov	$1, $015776 <TEMP>
  1642: 012700 000010       	mov	$8, r0
  1646: 000261              	.word	177
  1650: 005660 015766       	sbc	7158(r0)
  1654: 005767 014116       	tst	$015776 <TEMP>
  1660: 001401              	beq	01664 <PAGE06+062>
  1662: 104000              	emt	0
  1664: 104400              	sys	0
  1666: 012700 000010       	mov	$8, r0
  1672: 000160 001666       	jmp	950(r0)
001676 <RJMP1>:
  1676: 000240              	nop
  1700: 104400              	sys	0
  1702: 012700 177770       	mov	$-8, r0
  1706: 000160 001724       	jmp	980(r0)
  1712: 104000              	emt	0
001714 <RJMP2>:
  1714: 000240              	nop
  1716: 104400              	sys	0
001720 <PAGE07>:
  1720: 023727 015744 125252	cmp	*$7140, $-21846
  1726: 001401              	beq	01732 <PAGE07+012>
  1730: 104000              	emt	0
  1732: 104400              	sys	0
  1734: 022737 125252 015744	cmp	$-21846, *$7140
  1742: 001401              	beq	01746 <PAGE07+026>
  1744: 104000              	emt	0
  1746: 104400              	sys	0
  1750: 023737 015744 015744	cmp	*$7140, *$7140
  1756: 001401              	beq	01762 <PAGE07+042>
  1760: 104000              	emt	0
  1762: 104400              	sys	0
  1764: 013700 015744       	mov	*$7140, r0
  1770: 022700 125252       	cmp	$-21846, r0
  1774: 001401              	beq	02000 <PAGE07+060>
  1776: 104000              	emt	0
  2000: 104400              	sys	0
  2002: 012737 125252 015776	mov	$-21846, *$7166
  2010: 026767 013730 013760	cmp	$015744 <B>, $015776 <TEMP>
  2016: 001401              	beq	02022 <PAGE07+0102>
  2020: 104000              	emt	0
  2022: 104400              	sys	0
  2024: 013737 015744 015766	mov	*$7140, *$7158
  2032: 026767 013706 013726	cmp	$015744 <B>, $015766 <C>
  2040: 001401              	beq	02044 <PAGE07+0124>
  2042: 104000              	emt	0
  2044: 104400              	sys	0
002046 <PAGE08>:
  2046: 012700 177777       	mov	$-1, r0
  2052: 043700 015744       	bic	*$7140, r0
  2056: 020027 052525       	cmp	r0, $21845
  2062: 001401              	beq	02066 <PAGE08+020>
  2064: 104000              	emt	0
  2066: 104400              	sys	0
  2070: 012767 177777 013700	mov	$-1, $015776 <TEMP>
  2076: 042737 125252 015776	bic	$-21846, *$7166
  2104: 022767 052525 013664	cmp	$21845, $015776 <TEMP>
  2112: 001401              	beq	02116 <PAGE08+050>
  2114: 104000              	emt	0
  2116: 104400              	sys	0
  2120: 012767 177777 013640	mov	$-1, $015766 <C>
  2126: 043737 015744 015766	bic	*$7140, *$7158
  2134: 026727 013626 052525	cmp	$015766 <C>, $21845
  2142: 001401              	beq	02146 <PAGE08+0100>
  2144: 104000              	emt	0
  2146: 104400              	sys	0
  2150: 012700 125252       	mov	$-21846, r0
  2154: 163700 015744       	sub	*$7140, r0
  2160: 020027 000000       	cmp	r0, $0
  2164: 001401              	beq	02170 <PAGE08+0122>
  2166: 104000              	emt	0
  2170: 104400              	sys	0
  2172: 012767 125252 013576	mov	$-21846, $015776 <TEMP>
  2200: 166737 013540 015776	sub	$015744 <B>, *$7166
  2206: 001401              	beq	02212 <PAGE08+0144>
  2210: 104000              	emt	0
  2212: 104400              	sys	0
  2214: 012767 125252 013554	mov	$-21846, $015776 <TEMP>
  2222: 163767 015744 013546	sub	*$7140, $015776 <TEMP>
  2230: 005767 013542       	tst	$015776 <TEMP>
  2234: 001401              	beq	02240 <PAGE08+0172>
  2236: 104000              	emt	0
  2240: 104400              	sys	0
002242 <PAGE09>:
  2242: 005000              	clr	r0
  2244: 063700 015744       	add	*$7140, r0
  2250: 022700 125252       	cmp	$-21846, r0
  2254: 001401              	beq	02260 <PAGE09+016>
  2256: 104000              	emt	0
  2260: 104400              	sys	0
  2262: 005067 013510       	clr	$015776 <TEMP>
  2266: 062737 125252 015776	add	$-21846, *$7166
  2274: 022767 125252 013474	cmp	$-21846, $015776 <TEMP>
  2302: 001401              	beq	02306 <PAGE09+044>
  2304: 104000              	emt	0
  2306: 012767 125252 013462	mov	$-21846, $015776 <TEMP>
  2314: 067737 013442 015776	add	*$015762 <A+6>, *$7166
  2322: 026727 013450 177777	cmp	$015776 <TEMP>, $-1
  2330: 001401              	beq	02334 <PAGE09+072>
  2332: 104000              	emt	0
  2334: 104400              	sys	0
002336 <PAGE10>:
  2336: 012767 177777 013432	mov	$-1, $015776 <TEMP>
  2344: 005037 015776       	clr	*$7166
  2350: 005767 013422       	tst	$015776 <TEMP>
  2354: 001401              	beq	02360 <PAGE10+022>
  2356: 104000              	emt	0
  2360: 104400              	sys	0
  2362: 012767 125252 013406	mov	$-21846, $015776 <TEMP>
  2370: 005137 015776       	com	*$7166
  2374: 022767 052525 013374	cmp	$21845, $015776 <TEMP>
  2402: 001401              	beq	02406 <PAGE10+050>
  2404: 104000              	emt	0
  2406: 104400              	sys	0
  2410: 005067 013362       	clr	$015776 <TEMP>
  2414: 005237 015776       	inc	*$7166
  2420: 022767 000001 013350	cmp	$1, $015776 <TEMP>
  2426: 001401              	beq	02432 <PAGE10+074>
  2430: 104000              	emt	0
  2432: 104400              	sys	0
  2434: 005067 013336       	clr	$015776 <TEMP>
  2440: 005337 015776       	dec	*$7166
  2444: 026727 013326 177777	cmp	$015776 <TEMP>, $-1
  2452: 001401              	beq	02456 <PAGE10+0120>
  2454: 104000              	emt	0
  2456: 104400              	sys	0
  2460: 012767 000001 013310	mov	$1, $015776 <TEMP>
  2466: 005437 015776       	neg	*$7166
  2472: 022767 177777 013276	cmp	$-1, $015776 <TEMP>
  2500: 001401              	beq	02504 <PAGE10+0146>
  2502: 104000              	emt	0
  2504: 104400              	sys	0
  2506: 027727 013234 125252	cmp	*$015746 <B+2>, $-21846
  2514: 001401              	beq	02520 <PAGE10+0162>
  2516: 104000              	emt	0
  2520: 104400              	sys	0
  2522: 022777 125252 013216	cmp	$-21846, *$015746 <B+2>
  2530: 001401              	beq	02534 <PAGE10+0176>
  2532: 104000              	emt	0
  2534: 104400              	sys	0
  2536: 027777 013204 013202	cmp	*$015746 <B+2>, *$015746 <B+2>
  2544: 001401              	beq	02550 <PAGE10+0212>
  2546: 104000              	emt	0
  2550: 104400              	sys	0
002552 <PAGE11>:
  2552: 017700 013170       	mov	*$015744 <B>, r0
  2556: 022700 125252       	cmp	$-21846, r0
  2562: 001401              	beq	02566 <PAGE11+014>
  2564: 104000              	emt	0
  2566: 104400              	sys	0
  2570: 012777 125252 013202	mov	$-21846, *$016000 <TEMP+2>
  2576: 026767 013142 013172	cmp	$015744 <B>, $015776 <TEMP>
  2604: 001401              	beq	02610 <PAGE11+036>
  2606: 104000              	emt	0
  2610: 104400              	sys	0
  2612: 017777 013130 013150	mov	*$015746 <B+2>, *$015770 <C+2>
  2620: 026767 013120 013140	cmp	$015744 <B>, $015766 <C>
  2626: 001401              	beq	02632 <PAGE11+060>
  2630: 104000              	emt	0
  2632: 104400              	sys	0
  2634: 012700 177777       	mov	$-1, r0
  2640: 047700 013102       	bic	*$015744 <B>, r0
  2644: 020027 052525       	cmp	r0, $21845
  2650: 001401              	beq	02654 <PAGE11+0102>
  2652: 104000              	emt	0
  2654: 104400              	sys	0
  2656: 012767 177777 013112	mov	$-1, $015776 <TEMP>
  2664: 042777 125252 013106	bic	$-21846, *$016000 <TEMP+2>
  2672: 022767 052525 013076	cmp	$21845, $015776 <TEMP>
  2700: 001401              	beq	02704 <PAGE11+0132>
  2702: 104000              	emt	0
  2704: 104400              	sys	0
  2706: 012767 177777 013052	mov	$-1, $015766 <C>
  2714: 047777 013026 013046	bic	*$015746 <B+2>, *$015770 <C+2>
  2722: 026767 013040 013036	cmp	$015766 <C>, $015766 <C>
  2730: 001401              	beq	02734 <PAGE11+0162>
  2732: 104000              	emt	0
  2734: 104400              	sys	0
  2736: 012700 125252       	mov	$-21846, r0
  2742: 167700 013000       	sub	*$015744 <B>, r0
  2746: 020027 000000       	cmp	r0, $0
  2752: 001401              	beq	02756 <PAGE11+0204>
  2754: 104000              	emt	0
  2756: 104400              	sys	0
  2760: 012767 125252 013010	mov	$-21846, $015776 <TEMP>
  2766: 166777 012752 013004	sub	$015744 <B>, *$016000 <TEMP+2>
  2774: 001401              	beq	03000 <PAGE11+0226>
  2776: 104000              	emt	0
  3000: 104400              	sys	0
  3002: 012767 125252 012766	mov	$-21846, $015776 <TEMP>
  3010: 167777 012732 012762	sub	*$015746 <B+2>, *$016000 <TEMP+2>
  3016: 005767 012754       	tst	$015776 <TEMP>
  3022: 001401              	beq	03026 <PAGE11+0254>
  3024: 104000              	emt	0
  3026: 104400              	sys	0
003030 <PAGE12>:
  3030: 005000              	clr	r0
  3032: 067700 012710       	add	*$015744 <B>, r0
  3036: 022700 125252       	cmp	$-21846, r0
  3042: 001401              	beq	03046 <PAGE12+016>
  3044: 104000              	emt	0
  3046: 104400              	sys	0
  3050: 005067 012722       	clr	$015776 <TEMP>
  3054: 062777 125252 012716	add	$-21846, *$016000 <TEMP+2>
  3062: 022767 125252 012706	cmp	$-21846, $015776 <TEMP>
  3070: 001401              	beq	03074 <PAGE12+044>
  3072: 104000              	emt	0
  3074: 012767 125252 012674	mov	$-21846, $015776 <TEMP>
  3102: 067777 012654 012670	add	*$015762 <A+6>, *$016000 <TEMP+2>
  3110: 026727 012662 177777	cmp	$015776 <TEMP>, $-1
  3116: 001401              	beq	03122 <PAGE12+072>
  3120: 104000              	emt	0
  3122: 104400              	sys	0
  3124: 012767 177777 012644	mov	$-1, $015776 <TEMP>
  3132: 005077 012642       	clr	*$016000 <TEMP+2>
  3136: 005767 012634       	tst	$015776 <TEMP>
  3142: 001401              	beq	03146 <PAGE12+0116>
  3144: 104000              	emt	0
  3146: 104400              	sys	0
  3150: 012767 125252 012620	mov	$-21846, $015776 <TEMP>
  3156: 005177 012616       	com	*$016000 <TEMP+2>
  3162: 022767 052525 012606	cmp	$21845, $015776 <TEMP>
  3170: 001401              	beq	03174 <PAGE12+0144>
  3172: 104000              	emt	0
  3174: 104400              	sys	0
  3176: 005067 012574       	clr	$015776 <TEMP>
  3202: 005277 012572       	inc	*$016000 <TEMP+2>
  3206: 022767 000001 012562	cmp	$1, $015776 <TEMP>
  3214: 001401              	beq	03220 <PAGE12+0170>
  3216: 104000              	emt	0
  3220: 104400              	sys	0
  3222: 005067 012550       	clr	$015776 <TEMP>
  3226: 005377 012546       	dec	*$016000 <TEMP+2>
  3232: 026727 012540 177777	cmp	$015776 <TEMP>, $-1
  3240: 001401              	beq	03244 <PAGE12+0214>
  3242: 104000              	emt	0
  3244: 104400              	sys	0
  3246: 012767 000001 012522	mov	$1, $015776 <TEMP>
  3254: 005477 012520       	neg	*$016000 <TEMP+2>
  3260: 022767 177777 012510	cmp	$-1, $015776 <TEMP>
  3266: 001401              	beq	03272 <PAGE12+0242>
  3270: 104000              	emt	0
  3272: 104400              	sys	0
003274 <PAGE13>:
  3274: 012767 177777 012474	mov	$-1, $015776 <TEMP>
  3302: 000261              	.word	177
  3304: 005577 012470       	adc	*$016000 <TEMP+2>
  3310: 005767 012462       	tst	$015776 <TEMP>
  3314: 001401              	beq	03320 <PAGE13+024>
  3316: 104000              	emt	0
  3320: 104400              	sys	0
  3322: 012767 000001 012446	mov	$1, $015776 <TEMP>
  3330: 000261              	.word	177
  3332: 005677 012442       	sbc	*$016000 <TEMP+2>
  3336: 005767 012434       	tst	$015776 <TEMP>
  3342: 001401              	beq	03346 <PAGE13+052>
  3344: 104000              	emt	0
  3346: 104400              	sys	0
  3350: 012700 177772       	mov	$-6, r0
  3354: 027027 015754 125252	cmp	*7148(r0), $-21846
  3362: 001401              	beq	03366 <PAGE13+072>
  3364: 104000              	emt	0
  3366: 104400              	sys	0
  3370: 012700 177772       	mov	$-6, r0
  3374: 022770 125252 015754	cmp	$-21846, *7148(r0)
  3402: 001401              	beq	03406 <PAGE13+0112>
  3404: 104000              	emt	0
  3406: 104400              	sys	0
  3410: 012700 177772       	mov	$-6, r0
  3414: 012701 000002       	mov	$2, r1
  3420: 027071 015754 015754	cmp	*7148(r0), *7148(r1)
  3426: 001401              	beq	03432 <PAGE13+0136>
  3430: 104000              	emt	0
  3432: 104400              	sys	0
  3434: 012700 000006       	mov	$6, r0
  3440: 012767 177777 012330	mov	$-1, $015776 <TEMP>
  3446: 047067 015754 012322	bic	*7148(r0), $015776 <TEMP>
  3454: 022767 125252 012314	cmp	$-21846, $015776 <TEMP>
  3462: 001401              	beq	03466 <PAGE13+0172>
  3464: 104000              	emt	0
  3466: 104400              	sys	0
  3470: 012700 177772       	mov	$-6, r0
  3474: 012767 177777 012264	mov	$-1, $015766 <C>
  3502: 042770 125252 015776	bic	$-21846, *7166(r0)
  3510: 026727 012252 052525	cmp	$015766 <C>, $21845
  3516: 001401              	beq	03522 <PAGE13+0226>
  3520: 104000              	emt	0
  3522: 104400              	sys	0
003524 <PAGE14>:
  3524: 012767 177777 012234	mov	$-1, $015766 <C>
  3532: 012700 177772       	mov	$-6, r0
  3536: 012701 177772       	mov	$-6, r1
  3542: 047071 015754 015776	bic	*7148(r0), *7166(r1)
  3550: 022767 052525 012210	cmp	$21845, $015766 <C>
  3556: 001401              	beq	03562 <PAGE14+036>
  3560: 104000              	emt	0
  3562: 104400              	sys	0
  3564: 012700 177770       	mov	$-8, r0
  3570: 126027 015754 000252	cmpb	7148(r0), $170
  3576: 001401              	beq	03602 <PAGE14+056>
  3600: 104000              	emt	0
  3602: 104400              	sys	0
  3604: 012700 177770       	mov	$-8, r0
  3610: 122760 000252 015754	cmpb	$170, 7148(r0)
  3616: 001401              	beq	03622 <PAGE14+076>
  3620: 104000              	emt	0
  3622: 104400              	sys	0
  3624: 012700 000010       	mov	$8, r0
  3630: 126027 015754 000125	cmpb	7148(r0), $85
  3636: 001401              	beq	03642 <PAGE14+0116>
  3640: 104000              	emt	0
  3642: 104400              	sys	0
  3644: 012700 000010       	mov	$8, r0
  3650: 122760 000125 015754	cmpb	$85, 7148(r0)
  3656: 001401              	beq	03662 <PAGE14+0136>
  3660: 104000              	emt	0
  3662: 104400              	sys	0
  3664: 012700 177770       	mov	$-8, r0
  3670: 126060 015754 015754	cmpb	7148(r0), 7148(r0)
  3676: 001401              	beq	03702 <PAGE14+0156>
  3700: 104000              	emt	0
  3702: 104400              	sys	0
  3704: 012700 000010       	mov	$8, r0
  3710: 126060 015754 015754	cmpb	7148(r0), 7148(r0)
  3716: 001401              	beq	03722 <PAGE14+0176>
  3720: 104000              	emt	0
  3722: 104400              	sys	0
  3724: 012700 177770       	mov	$-8, r0
  3730: 012701 000004       	mov	$4, r1
  3734: 126061 015754 015754	cmpb	7148(r0), 7148(r1)
  3742: 001401              	beq	03746 <PAGE14+0222>
  3744: 104000              	emt	0
  3746: 104400              	sys	0
  3750: 126160 015754 015754	cmpb	7148(r1), 7148(r0)
  3756: 001401              	beq	03762 <PAGE14+0236>
  3760: 104000              	emt	0
  3762: 104400              	sys	0
  3764: 012700 177774       	mov	$-4, r0
  3770: 012701 000010       	mov	$8, r1
  3774: 126061 015754 015754	cmpb	7148(r0), 7148(r1)
  4002: 001401              	beq	04006 <PAGE14+0262>
  4004: 104000              	emt	0
  4006: 012700 177774       	mov	$-4, r0
  4012: 012701 000010       	mov	$8, r1
  4016: 126160 015754 015754	cmpb	7148(r1), 7148(r0)
  4024: 001401              	beq	04030 <PAGE14+0304>
  4026: 104000              	emt	0
  4030: 104400              	sys	0
004032 <PAGE15>:
  4032: 012700 177770       	mov	$-8, r0
  4036: 116067 015754 011732	movb	7148(r0), $015776 <TEMP>
  4044: 126727 011726 000252	cmpb	$015776 <TEMP>, $170
  4052: 001401              	beq	04056 <PAGE15+024>
  4054: 104000              	emt	0
  4056: 104400              	sys	0
  4060: 012700 000010       	mov	$8, r0
  4064: 116067 015754 011704	movb	7148(r0), $015776 <TEMP>
  4072: 126727 011700 000125	cmpb	$015776 <TEMP>, $85
  4100: 001401              	beq	04104 <PAGE15+052>
  4102: 104000              	emt	0
  4104: 104400              	sys	0
  4106: 012700 177770       	mov	$-8, r0
  4112: 112760 125252 015776	movb	$-21846, 7166(r0)
  4120: 126727 011642 125252	cmpb	$015766 <C>, $-21846
  4126: 001401              	beq	04132 <PAGE15+0100>
  4130: 104000              	emt	0
  4132: 104400              	sys	0
  4134: 012700 000010       	mov	$8, r0
  4140: 112760 052525 015776	movb	$21845, 7166(r0)
  4146: 126727 011634 052525	cmpb	$016006 <D>, $21845
  4154: 001401              	beq	04160 <PAGE15+0126>
  4156: 104000              	emt	0
  4160: 104400              	sys	0
  4162: 012767 177777 011606	mov	$-1, $015776 <TEMP>
  4170: 012700 177770       	mov	$-8, r0
  4174: 146067 015754 011574	bicb	7148(r0), $015776 <TEMP>
  4202: 126727 011570 177525	cmpb	$015776 <TEMP>, $-171
  4210: 001401              	beq	04214 <PAGE15+0162>
  4212: 104000              	emt	0
  4214: 104400              	sys	0
  4216: 012767 177777 011552	mov	$-1, $015776 <TEMP>
  4224: 012700 000010       	mov	$8, r0
  4230: 146067 015754 011540	bicb	7148(r0), $015776 <TEMP>
  4236: 126727 011534 007652	cmpb	$015776 <TEMP>, $4010
  4244: 001401              	beq	04250 <PAGE15+0216>
  4246: 104000              	emt	0
  4250: 104400              	sys	0
  4252: 012767 177777 011526	mov	$-1, $016006 <D>
  4260: 012700 000010       	mov	$8, r0
  4264: 142760 125252 015776	bicb	$-21846, 7166(r0)
  4272: 126727 011510 002525	cmpb	$016006 <D>, $1365
  4300: 001401              	beq	04304 <PAGE15+0252>
  4302: 104000              	emt	0
  4304: 104400              	sys	0
  4306: 012700 177770       	mov	$-8, r0
  4312: 012767 177777 011446	mov	$-1, $015766 <C>
  4320: 142767 052525 011440	bicb	$21845, $015766 <C>
  4326: 126727 011434 125252	cmpb	$015766 <C>, $-21846
  4334: 001401              	beq	04340 <PAGE15+0306>
  4336: 104000              	emt	0
  4340: 104400              	sys	0
004342 <PAGE16>:
  4342: 012767 177777 011426	mov	$-1, $015776 <TEMP>
  4350: 012700 177770       	mov	$-8, r0
  4354: 105060 016006       	clrb	7174(r0)
  4360: 105767 011412       	tstb	$015776 <TEMP>
  4364: 001401              	beq	04370 <PAGE16+026>
  4366: 104000              	emt	0
  4370: 104400              	sys	0
  4372: 012767 177777 011376	mov	$-1, $015776 <TEMP>
  4400: 012700 177770       	mov	$-8, r0
  4404: 105060 016006       	clrb	7174(r0)
  4410: 026727 011362 177400	cmp	$015776 <TEMP>, $-256
  4416: 001401              	beq	04422 <PAGE16+060>
  4420: 104000              	emt	0
  4422: 104400              	sys	0
  4424: 012767 177777 011344	mov	$-1, $015776 <TEMP>
  4432: 012700 177771       	mov	$-7, r0
  4436: 105060 016006       	clrb	7174(r0)
  4442: 026727 011330 000377	cmp	$015776 <TEMP>, $255
  4450: 001401              	beq	04454 <PAGE16+0112>
  4452: 104000              	emt	0
  4454: 104400              	sys	0
  4456: 012767 177777 011312	mov	$-1, $015776 <TEMP>
  4464: 012700 000010       	mov	$8, r0
  4470: 105060 015766       	clrb	7158(r0)
  4474: 105767 011276       	tstb	$015776 <TEMP>
  4500: 001401              	beq	04504 <PAGE16+0142>
  4502: 104000              	emt	0
  4504: 104400              	sys	0
  4506: 012767 177777 011262	mov	$-1, $015776 <TEMP>
  4514: 012700 177770       	mov	$-8, r0
  4520: 105160 016006       	comb	7174(r0)
  4524: 105767 011246       	tstb	$015776 <TEMP>
  4530: 001401              	beq	04534 <PAGE16+0172>
  4532: 104000              	emt	0
  4534: 104400              	sys	0
  4536: 012767 177777 011232	mov	$-1, $015776 <TEMP>
  4544: 012700 000010       	mov	$8, r0
  4550: 105160 015766       	comb	7158(r0)
  4554: 105767 011216       	tstb	$015776 <TEMP>
  4560: 001401              	beq	04564 <PAGE16+0222>
  4562: 104000              	emt	0
  4564: 104400              	sys	0
004566 <PAGE17>:
  4566: 012767 177777 011202	mov	$-1, $015776 <TEMP>
  4574: 012700 177770       	mov	$-8, r0
  4600: 105260 016006       	incb	7174(r0)
  4604: 105767 011166       	tstb	$015776 <TEMP>
  4610: 001401              	beq	04614 <PAGE17+026>
  4612: 104000              	emt	0
  4614: 026727 011156 177400	cmp	$015776 <TEMP>, $-256
  4622: 001401              	beq	04626 <PAGE17+040>
  4624: 104000              	emt	0
  4626: 104400              	sys	0
  4630: 012767 177777 011140	mov	$-1, $015776 <TEMP>
  4636: 012700 000010       	mov	$8, r0
  4642: 105260 015766       	incb	7158(r0)
  4646: 105767 011124       	tstb	$015776 <TEMP>
  4652: 001401              	beq	04656 <PAGE17+070>
  4654: 104000              	emt	0
  4656: 104400              	sys	0
  4660: 012767 000001 011110	mov	$1, $015776 <TEMP>
  4666: 012700 177770       	mov	$-8, r0
  4672: 105360 016006       	decb	7174(r0)
  4676: 105767 011074       	tstb	$015776 <TEMP>
  4702: 001401              	beq	04706 <PAGE17+0120>
  4704: 104000              	emt	0
  4706: 104400              	sys	0
  4710: 012767 000001 011060	mov	$1, $015776 <TEMP>
  4716: 012700 000010       	mov	$8, r0
  4722: 105360 015766       	decb	7158(r0)
  4726: 105767 011044       	tstb	$015776 <TEMP>
  4732: 001401              	beq	04736 <PAGE17+0150>
  4734: 104000              	emt	0
  4736: 104400              	sys	0
  4740: 012767 000001 011030	mov	$1, $015776 <TEMP>
  4746: 012700 177770       	mov	$-8, r0
  4752: 105460 016006       	negb	7174(r0)
  4756: 026727 011014 000377	cmp	$015776 <TEMP>, $255
  4764: 001401              	beq	04770 <PAGE17+0202>
  4766: 104000              	emt	0
  4770: 104400              	sys	0
  4772: 012767 000001 010776	mov	$1, $015776 <TEMP>
  5000: 012700 000010       	mov	$8, r0
  5004: 105460 015766       	negb	7158(r0)
  5010: 026727 010762 000377	cmp	$015776 <TEMP>, $255
  5016: 001401              	beq	05022 <PAGE17+0234>
  5020: 104000              	emt	0
  5022: 104400              	sys	0
  5024: 012767 177777 010744	mov	$-1, $015776 <TEMP>
  5032: 012700 177770       	mov	$-8, r0
  5036: 000261              	.word	177
  5040: 105560 016006       	adcb	7174(r0)
  5044: 026727 010726 177400	cmp	$015776 <TEMP>, $-256
  5052: 001401              	beq	05056 <PAGE17+0270>
  5054: 104000              	emt	0
  5056: 104400              	sys	0
  5060: 012767 177777 010710	mov	$-1, $015776 <TEMP>
  5066: 012700 000010       	mov	$8, r0
  5072: 000261              	.word	177
  5074: 105560 015766       	adcb	7158(r0)
  5100: 026727 010672 177400	cmp	$015776 <TEMP>, $-256
  5106: 001401              	beq	05112 <PAGE17+0324>
  5110: 104000              	emt	0
  5112: 104400              	sys	0
005114 <PAGE18>:
  5114: 012767 000401 010654	mov	$257, $015776 <TEMP>
  5122: 012700 177771       	mov	$-7, r0
  5126: 000261              	.word	177
  5130: 105660 016006       	sbcb	7174(r0)
  5134: 022767 000001 010634	cmp	$1, $015776 <TEMP>
  5142: 001401              	beq	05146 <PAGE18+032>
  5144: 104000              	emt	0
  5146: 104400              	sys	0
  5150: 012767 000001 010620	mov	$1, $015776 <TEMP>
  5156: 012700 000010       	mov	$8, r0
  5162: 000261              	.word	177
  5164: 105660 015766       	sbcb	7158(r0)
  5170: 005767 010602       	tst	$015776 <TEMP>
  5174: 001401              	beq	05200 <PAGE18+064>
  5176: 104000              	emt	0
  5200: 104400              	sys	0
005202 <PAGE19>:
  5202: 123727 015744 000252	cmpb	*$7140, $170
  5210: 001401              	beq	05214 <PAGE19+012>
  5212: 104000              	emt	0
  5214: 104400              	sys	0
  5216: 123727 015745 000252	cmpb	*$7141, $170
  5224: 001401              	beq	05230 <PAGE19+026>
  5226: 104000              	emt	0
  5230: 104400              	sys	0
  5232: 122737 125252 015744	cmpb	$-21846, *$7140
  5240: 001401              	beq	05244 <PAGE19+042>
  5242: 104000              	emt	0
  5244: 104400              	sys	0
  5246: 123737 015744 015744	cmpb	*$7140, *$7140
  5254: 001401              	beq	05260 <PAGE19+056>
  5256: 104000              	emt	0
  5260: 104400              	sys	0
  5262: 113700 015744       	movb	*$7140, r0
  5266: 122700 000252       	cmpb	$170, r0
  5272: 001401              	beq	05276 <PAGE19+074>
  5274: 104000              	emt	0
  5276: 104400              	sys	0
  5300: 112737 125252 015776	movb	$-21846, *$7166
  5306: 126767 010432 010462	cmpb	$015744 <B>, $015776 <TEMP>
  5314: 001401              	beq	05320 <PAGE19+0116>
  5316: 104000              	emt	0
  5320: 104400              	sys	0
  5322: 113737 015744 015766	movb	*$7140, *$7158
  5330: 126767 010410 010430	cmpb	$015744 <B>, $015766 <C>
  5336: 001401              	beq	05342 <PAGE19+0140>
  5340: 104000              	emt	0
  5342: 104400              	sys	0
005344 <PAGE20>:
  5344: 012767 177777 010424	mov	$-1, $015776 <TEMP>
  5352: 105037 015776       	clrb	*$7166
  5356: 026727 010414 177400	cmp	$015776 <TEMP>, $-256
  5364: 001401              	beq	05370 <PAGE20+024>
  5366: 104000              	emt	0
  5370: 104400              	sys	0
  5372: 012767 125252 010376	mov	$-21846, $015776 <TEMP>
  5400: 105137 015776       	comb	*$7166
  5404: 022767 125125 010364	cmp	$-21931, $015776 <TEMP>
  5412: 001401              	beq	05416 <PAGE20+052>
  5414: 104000              	emt	0
  5416: 104400              	sys	0
  5420: 012767 125252 010350	mov	$-21846, $015776 <TEMP>
  5426: 105137 015777       	comb	*$7167
  5432: 022767 052652 010336	cmp	$21930, $015776 <TEMP>
  5440: 001401              	beq	05444 <PAGE20+0100>
  5442: 104000              	emt	0
  5444: 104400              	sys	0
  5446: 005067 010324       	clr	$015776 <TEMP>
  5452: 105237 015777       	incb	*$7167
  5456: 022767 000400 010312	cmp	$256, $015776 <TEMP>
  5464: 001401              	beq	05470 <PAGE20+0124>
  5466: 104000              	emt	0
  5470: 104400              	sys	0
  5472: 005067 010300       	clr	$015776 <TEMP>
  5476: 105377 010276       	decb	*$016000 <TEMP+2>
  5502: 026727 010270 000377	cmp	$015776 <TEMP>, $255
  5510: 001401              	beq	05514 <PAGE20+0150>
  5512: 104000              	emt	0
  5514: 104400              	sys	0
  5516: 005067 010254       	clr	$015776 <TEMP>
  5522: 112767 000001 010247	movb	$1, $015777 <TEMP+1>
  5530: 105437 015777       	negb	*$7167
  5534: 022767 177400 010234	cmp	$-256, $015776 <TEMP>
  5542: 001401              	beq	05546 <PAGE20+0202>
  5544: 104000              	emt	0
  5546: 104400              	sys	0
  5550: 127727 010172 125252	cmpb	*$015746 <B+2>, $-21846
  5556: 001401              	beq	05562 <PAGE20+0216>
  5560: 104000              	emt	0
  5562: 104400              	sys	0
  5564: 122777 125252 010154	cmpb	$-21846, *$015746 <B+2>
  5572: 001401              	beq	05576 <PAGE20+0232>
  5574: 104000              	emt	0
  5576: 104400              	sys	0
  5600: 127777 010142 010140	cmpb	*$015746 <B+2>, *$015746 <B+2>
  5606: 001401              	beq	05612 <PAGE20+0246>
  5610: 104000              	emt	0
  5612: 104400              	sys	0
005614 <PAGE21>:
  5614: 117700 010126       	movb	*$015744 <B>, r0
  5620: 122700 125252       	cmpb	$-21846, r0
  5624: 001401              	beq	05630 <PAGE21+014>
  5626: 104000              	emt	0
  5630: 104400              	sys	0
  5632: 112777 125252 010140	movb	$-21846, *$016000 <TEMP+2>
  5640: 126767 010100 010130	cmpb	$015744 <B>, $015776 <TEMP>
  5646: 001401              	beq	05652 <PAGE21+036>
  5650: 104000              	emt	0
  5652: 104400              	sys	0
  5654: 117777 010066 010106	movb	*$015746 <B+2>, *$015770 <C+2>
  5662: 126767 010056 010076	cmpb	$015744 <B>, $015766 <C>
  5670: 001401              	beq	05674 <PAGE21+060>
  5672: 104000              	emt	0
  5674: 104400              	sys	0
  5676: 012700 177777       	mov	$-1, r0
  5702: 147700 010040       	bicb	*$015744 <B>, r0
  5706: 120027 052525       	cmpb	r0, $21845
  5712: 001401              	beq	05716 <PAGE21+0102>
  5714: 104000              	emt	0
  5716: 104400              	sys	0
  5720: 012767 177777 010050	mov	$-1, $015776 <TEMP>
  5726: 142777 125252 010044	bicb	$-21846, *$016000 <TEMP+2>
  5734: 122767 052525 010034	cmpb	$21845, $015776 <TEMP>
  5742: 001401              	beq	05746 <PAGE21+0132>
  5744: 104000              	emt	0
  5746: 104400              	sys	0
  5750: 012767 177777 010010	mov	$-1, $015766 <C>
  5756: 147777 007764 010004	bicb	*$015746 <B+2>, *$015770 <C+2>
  5764: 126767 007776 007774	cmpb	$015766 <C>, $015766 <C>
  5772: 001401              	beq	05776 <PAGE21+0162>
  5774: 104000              	emt	0
  5776: 104400              	sys	0
006000 <PAGE22>:
  6000: 012767 177777 007770	mov	$-1, $015776 <TEMP>
  6006: 105077 007766       	clrb	*$016000 <TEMP+2>
  6012: 105767 007760       	tstb	$015776 <TEMP>
  6016: 001401              	beq	06022 <PAGE22+022>
  6020: 104000              	emt	0
  6022: 104400              	sys	0
  6024: 012767 125252 007744	mov	$-21846, $015776 <TEMP>
  6032: 105177 007742       	comb	*$016000 <TEMP+2>
  6036: 122767 052525 007732	cmpb	$21845, $015776 <TEMP>
  6044: 001401              	beq	06050 <PAGE22+050>
  6046: 104000              	emt	0
  6050: 104400              	sys	0
  6052: 005067 007720       	clr	$015776 <TEMP>
  6056: 105277 007716       	incb	*$016000 <TEMP+2>
  6062: 122767 000001 007706	cmpb	$1, $015776 <TEMP>
  6070: 001401              	beq	06074 <PAGE22+074>
  6072: 104000              	emt	0
  6074: 104400              	sys	0
  6076: 005067 007674       	clr	$015776 <TEMP>
  6102: 105377 007672       	decb	*$016000 <TEMP+2>
  6106: 126727 007664 177777	cmpb	$015776 <TEMP>, $-1
  6114: 001401              	beq	06120 <PAGE22+0120>
  6116: 104000              	emt	0
  6120: 104400              	sys	0
  6122: 012767 000001 007646	mov	$1, $015776 <TEMP>
  6130: 105477 007644       	negb	*$016000 <TEMP+2>
  6134: 122767 177777 007634	cmpb	$-1, $015776 <TEMP>
  6142: 001401              	beq	06146 <PAGE22+0146>
  6144: 104000              	emt	0
  6146: 104400              	sys	0
006150 <PAGE23>:
  6150: 012767 177777 007620	mov	$-1, $015776 <TEMP>
  6156: 000261              	.word	177
  6160: 105577 007614       	adcb	*$016000 <TEMP+2>
  6164: 022767 177400 007604	cmp	$-256, $015776 <TEMP>
  6172: 001401              	beq	06176 <PAGE23+026>
  6174: 104000              	emt	0
  6176: 105767 007574       	tstb	$015776 <TEMP>
  6202: 001401              	beq	06206 <PAGE23+036>
  6204: 104000              	emt	0
  6206: 104400              	sys	0
  6210: 012767 000001 007560	mov	$1, $015776 <TEMP>
  6216: 000261              	.word	177
  6220: 105377 007554       	decb	*$016000 <TEMP+2>
  6224: 105767 007546       	tstb	$015776 <TEMP>
  6230: 001401              	beq	06234 <PAGE23+064>
  6232: 104000              	emt	0
  6234: 104400              	sys	0
  6236: 012700 177772       	mov	$-6, r0
  6242: 127027 015754 125252	cmpb	*7148(r0), $-21846
  6250: 001401              	beq	06254 <PAGE23+0104>
  6252: 104000              	emt	0
  6254: 104400              	sys	0
  6256: 012700 177772       	mov	$-6, r0
  6262: 122770 125252 015754	cmpb	$-21846, *7148(r0)
  6270: 001401              	beq	06274 <PAGE23+0124>
  6272: 104000              	emt	0
  6274: 104400              	sys	0
  6276: 012700 177772       	mov	$-6, r0
  6302: 012701 000002       	mov	$2, r1
  6306: 127071 015754 015754	cmpb	*7148(r0), *7148(r1)
  6314: 001401              	beq	06320 <PAGE23+0150>
  6316: 104000              	emt	0
  6320: 104400              	sys	0
  6322: 012700 000006       	mov	$6, r0
  6326: 012767 177777 007442	mov	$-1, $015776 <TEMP>
  6334: 147067 015754 007434	bicb	*7148(r0), $015776 <TEMP>
  6342: 122767 125252 007426	cmpb	$-21846, $015776 <TEMP>
  6350: 001401              	beq	06354 <PAGE23+0204>
  6352: 104000              	emt	0
  6354: 104400              	sys	0
  6356: 012700 177772       	mov	$-6, r0
  6362: 012767 177777 007376	mov	$-1, $015766 <C>
  6370: 142770 125252 015776	bicb	$-21846, *7166(r0)
  6376: 126727 007364 000125	cmpb	$015766 <C>, $85
  6404: 001401              	beq	06410 <PAGE23+0240>
  6406: 104000              	emt	0
  6410: 104400              	sys	0
  6412: 012700 015746       	mov	$7142, r0
  6416: 023067 007322       	cmp	*(r0)+, $015744 <B>
  6422: 001401              	beq	06426 <PAGE23+0256>
  6424: 104000              	emt	0
  6426: 104400              	sys	0
  6430: 012700 015750       	mov	$7144, r0
  6434: 025067 007304       	cmp	*-(r0), $015744 <B>
  6440: 001401              	beq	06444 <PAGE23+0274>
  6442: 104000              	emt	0
  6444: 104400              	sys	0
  6446: 012700 015750       	mov	$7144, r0
  6452: 125067 007266       	cmpb	*-(r0), $015744 <B>
  6456: 001401              	beq	06462 <PAGE23+0312>
  6460: 104000              	emt	0
  6462: 104400              	sys	0
  6464: 012700 015772       	mov	$7162, r0
  6470: 012767 177777 007270	mov	$-1, $015766 <C>
  6476: 105050              	clrb	*-(r0)
  6500: 026727 007262 177400	cmp	$015766 <C>, $-256
  6506: 001401              	beq	06512 <PAGE24>
  6510: 104000              	emt	0
006512 <PAGE24>:
  6512: 012767 177777 007246	mov	$-1, $015766 <C>
  6520: 012700 177772       	mov	$-6, r0
  6524: 012701 177772       	mov	$-6, r1
  6530: 147071 015754 015776	bicb	*7148(r0), *7166(r1)
  6536: 022767 177525 007222	cmp	$-171, $015766 <C>
  6544: 001401              	beq	06550 <PAGE24+036>
  6546: 104000              	emt	0
  6550: 104400              	sys	0
  6552: 012700 052525       	mov	$21845, r0
  6556: 104400              	sys	0
  6560: 004767 000002       	jsr	pc, 06566 <TJSR2>
006564 <TJSR1>:
  6564: 000405              	br	06600 <TJSR3>
006566 <TJSR2>:
  6566: 021627 006564       	cmp	(sp), $3444
  6572: 001401              	beq	06576 <TJSR2+010>
  6574: 104000              	emt	0
  6576: 000207              	rts	pc
006600 <TJSR3>:
  6600: 104400              	sys	0
  6602: 005067 007046       	clr	$015654 <FLAG>
  6606: 004767 007026       	jsr	pc, 015640 <SUBR5>
  6612: 100401              	bmi	06616 <TJSR3+016>
  6614: 104000              	emt	0
  6616: 104400              	sys	0
  6620: 005067 007030       	clr	$015654 <FLAG>
  6624: 004767 007016       	jsr	pc, 015646 <SUBR6>
  6630: 005767 007020       	tst	$015654 <FLAG>
  6634: 100401              	bmi	06640 <TJSR3+040>
  6636: 104000              	emt	0
  6640: 104400              	sys	0
  6642: 000257              	ccc
  6644: 005067 007004       	clr	$015654 <FLAG>
  6650: 004767 006772       	jsr	pc, 015646 <SUBR6>
  6654: 100401              	bmi	06660 <TJSR3+060>
  6656: 104000              	emt	0
  6660: 001001              	bne	06664 <TJSR3+064>
  6662: 104000              	emt	0
  6664: 102001              	bvc	06670 <TJSR3+070>
  6666: 104000              	emt	0
  6670: 103401              	bcs	06674 <TJSR3+074>
  6672: 104000              	emt	0
  6674: 104400              	sys	0
  6676: 000277              	scc
  6700: 005067 006750       	clr	$015654 <FLAG>
  6704: 004767 006736       	jsr	pc, 015646 <SUBR6>
  6710: 100401              	bmi	06714 <TJSR3+0114>
  6712: 104000              	emt	0
  6714: 001001              	bne	06720 <TJSR3+0120>
  6716: 104000              	emt	0
  6720: 102001              	bvc	06724 <TJSR3+0124>
  6722: 104000              	emt	0
  6724: 103401              	bcs	06730 <TJSR3+0130>
  6726: 104000              	emt	0
  6730: 104400              	sys	0
006732 <PX01>:
  6732: 000257              	ccc
  6734: 103407              	bcs	06754 <CC0>
  6736: 102406              	bvs	06754 <CC0>
  6740: 001405              	beq	06754 <CC0>
  6742: 100404              	bmi	06754 <CC0>
  6744: 002403              	blt	06754 <CC0>
  6746: 003402              	ble	06754 <CC0>
  6750: 101401              	blos	06754 <CC0>
  6752: 101001              	bhi	06756 <CC0+2>
006754 <CC0>:
  6754: 104000              	emt	0
  6756: 000270              	sen
  6760: 100003              	bpl	06770 <CC1>
  6762: 002002              	bge	06770 <CC1>
  6764: 003001              	bgt	06770 <CC1>
  6766: 002401              	blt	06772 <CC1+2>
006770 <CC1>:
  6770: 104000              	emt	0
  6772: 000262              	sev
  6774: 102003              	bvc	07004 <CC2>
  6776: 002402              	blt	07004 <CC2>
  7000: 003401              	ble	07004 <CC2>
  7002: 002001              	bge	07006 <CC2+2>
007004 <CC2>:
  7004: 104000              	emt	0
  7006: 000261              	.word	177
  7010: 103003              	bcc	07020 <CC3>
  7012: 002402              	blt	07020 <CC3>
  7014: 003401              	ble	07020 <CC3>
  7016: 002001              	bge	07022 <CC3+2>
007020 <CC3>:
  7020: 104000              	emt	0
  7022: 000264              	sez
  7024: 001003              	bne	07034 <CC4>
  7026: 003002              	bgt	07034 <CC4>
  7030: 101001              	bhi	07034 <CC4>
  7032: 003401              	ble	07036 <CC4+2>
007034 <CC4>:
  7034: 104000              	emt	0
  7036: 104400              	sys	0
  7040: 000277              	scc
  7042: 000244              	clz
  7044: 005001              	clr	r1
  7046: 103404              	bcs	07060 <CLR0>
  7050: 102403              	bvs	07060 <CLR0>
  7052: 001002              	bne	07060 <CLR0>
  7054: 100401              	bmi	07060 <CLR0>
  7056: 003401              	ble	07062 <CLR0+2>
007060 <CLR0>:
  7060: 104000              	emt	0
  7062: 000277              	scc
  7064: 005701              	tst	r1
  7066: 103404              	bcs	07100 <TST0>
  7070: 102403              	bvs	07100 <TST0>
  7072: 001002              	bne	07100 <TST0>
  7074: 100401              	bmi	07100 <TST0>
  7076: 101401              	blos	07102 <TST0+2>
007100 <TST0>:
  7100: 104000              	emt	0
  7102: 000257              	ccc
  7104: 000266              	se_6
  7106: 005101              	com	r1
  7110: 103004              	bcc	07122 <COM0>
  7112: 102403              	bvs	07122 <COM0>
  7114: 001402              	beq	07122 <COM0>
  7116: 100001              	bpl	07122 <COM0>
  7120: 002401              	blt	07124 <COM0+2>
007122 <COM0>:
  7122: 104000              	emt	0
  7124: 000261              	.word	177
  7126: 005501              	adc	r1
  7130: 103003              	bcc	07140 <ADC0>
  7132: 102402              	bvs	07140 <ADC0>
  7134: 001001              	bne	07140 <ADC0>
  7136: 002001              	bge	07142 <ADC0+2>
007140 <ADC0>:
  7140: 104000              	emt	0
  7142: 000261              	.word	177
  7144: 006001              	ror	r1
  7146: 103404              	bcs	07160 <ROR0>
  7150: 102003              	bvc	07160 <ROR0>
  7152: 001402              	beq	07160 <ROR0>
  7154: 100001              	bpl	07160 <ROR0>
  7156: 003001              	bgt	07162 <ROR0+2>
007160 <ROR0>:
  7160: 104000              	emt	0
  7162: 000277              	scc
  7164: 000242              	clv
  7166: 005301              	dec	r1
  7170: 103004              	bcc	07202 <DEC0>
  7172: 102003              	bvc	07202 <DEC0>
  7174: 001402              	beq	07202 <DEC0>
  7176: 100401              	bmi	07202 <DEC0>
  7200: 003401              	ble	07204 <DEC0+2>
007202 <DEC0>:
  7202: 104000              	emt	0
  7204: 000257              	ccc
  7206: 005201              	inc	r1
  7210: 103404              	bcs	07222 <INC0>
  7212: 102003              	bvc	07222 <INC0>
  7214: 001402              	beq	07222 <INC0>
  7216: 100001              	bpl	07222 <INC0>
  7220: 003001              	bgt	07224 <INC0+2>
007222 <INC0>:
  7222: 104000              	emt	0
  7224: 000277              	scc
  7226: 000242              	clv
  7230: 005401              	neg	r1
  7232: 103003              	bcc	07242 <NEG0>
  7234: 102002              	bvc	07242 <NEG0>
  7236: 001401              	beq	07242 <NEG0>
  7240: 002001              	bge	07244 <NEG0+2>
007242 <NEG0>:
  7242: 104000              	emt	0
  7244: 000261              	.word	177
  7246: 006301              	asl	r1
  7250: 103004              	bcc	07262 <ASL0>
  7252: 102003              	bvc	07262 <ASL0>
  7254: 001002              	bne	07262 <ASL0>
  7256: 100401              	bmi	07262 <ASL0>
  7260: 101401              	blos	07264 <ASL0+2>
007262 <ASL0>:
  7262: 104000              	emt	0
  7264: 006101              	rol	r1
  7266: 103402              	bcs	07274 <ROL0>
  7270: 003401              	ble	07274 <ROL0>
  7272: 002001              	bge	07276 <ROL0+2>
007274 <ROL0>:
  7274: 104000              	emt	0
  7276: 006201              	asr	r1
  7300: 103003              	bcc	07310 <ASR0>
  7302: 102002              	bvc	07310 <ASR0>
  7304: 001001              	bne	07310 <ASR0>
  7306: 002401              	blt	07312 <ASR0+2>
007310 <ASR0>:
  7310: 104000              	emt	0
  7312: 000277              	scc
  7314: 005601              	sbc	r1
  7316: 103002              	bcc	07324 <SBC0>
  7320: 102401              	bvs	07324 <SBC0>
  7322: 002401              	blt	07326 <SBC0+2>
007324 <SBC0>:
  7324: 104000              	emt	0
  7326: 005401              	neg	r1
  7330: 000301              	swab	r1
  7332: 103403              	bcs	07342 <SWAB0>
  7334: 102402              	bvs	07342 <SWAB0>
  7336: 001001              	bne	07342 <SWAB0>
  7340: 002001              	bge	07344 <SWAB0+2>
007342 <SWAB0>:
  7342: 104000              	emt	0
  7344: 104400              	sys	0
  7346: 005000              	clr	r0
  7350: 000277              	scc
  7352: 006100              	rol	r0
  7354: 010002              	mov	r0, r2
  7356: 006302              	asl	r2
  7360: 010203              	mov	r2, r3
  7362: 006303              	asl	r3
  7364: 010304              	mov	r3, r4
  7366: 006304              	asl	r4
  7370: 010405              	mov	r4, r5
  7372: 006305              	asl	r5
  7374: 010546              	mov	r5, -(sp)
  7376: 050416              	bis	r4, (sp)
  7400: 050316              	bis	r3, (sp)
  7402: 050216              	bis	r2, (sp)
  7404: 050016              	bis	r0, (sp)
  7406: 022726 000037       	cmp	$31, (sp)+
  7412: 001401              	beq	07416 <SWAB0+054>
  7414: 104000              	emt	0
  7416: 050416              	bis	r4, (sp)
  7420: 000257              	ccc
  7422: 112700 000377       	movb	$255, r0
007426 <S1>:
  7426: 006100              	rol	r0
  7430: 103776              	bcs	07426 <S1>
  7432: 005200              	inc	r0
  7434: 001401              	beq	07440 <S1+012>
  7436: 104000              	emt	0
  7440: 012700 000020       	mov	$16, r0
  7444: 005002              	clr	r2
007446 <S2>:
  7446: 000261              	.word	177
  7450: 006002              	ror	r2
  7452: 005300              	dec	r0
  7454: 001374              	bne	07446 <S2>
  7456: 005102              	com	r2
  7460: 001401              	beq	07464 <S2+016>
  7462: 104000              	emt	0
  7464: 012703 100000       	mov	$-32768, r3
007470 <S3>:
  7470: 006203              	asr	r3
  7472: 103376              	bcc	07470 <S3>
  7474: 005203              	inc	r3
  7476: 001401              	beq	07502 <S3+012>
  7500: 104000              	emt	0
  7502: 112704 177401       	movb	$-255, r4
007506 <S4>:
  7506: 060404              	add	r4, r4
  7510: 103376              	bcc	07506 <S4>
  7512: 005704              	tst	r4
  7514: 001401              	beq	07520 <S4+012>
  7516: 104000              	emt	0
  7520: 012705 000001       	mov	$1, r5
007524 <S5>:
  7524: 006305              	asl	r5
  7526: 102376              	bvc	07524 <S5>
  7530: 006305              	asl	r5
  7532: 103002              	bcc	07540 <S6>
  7534: 005705              	tst	r5
  7536: 001401              	beq	07542 <S6+2>
007540 <S6>:
  7540: 104000              	emt	0
  7542: 005002              	clr	r2
  7544: 005102              	com	r2
  7546: 010203              	mov	r2, r3
  7550: 000257              	ccc
  7552: 006002              	ror	r2
  7554: 006202              	asr	r2
007556 <S7>:
  7556: 010304              	mov	r3, r4
  7560: 005302              	dec	r2
  7562: 001375              	bne	07556 <S7>
  7564: 005203              	inc	r3
  7566: 001002              	bne	07574 <S8>
  7570: 005204              	inc	r4
  7572: 001401              	beq	07576 <GSTST>
007574 <S8>:
  7574: 104000              	emt	0
007576 <GSTST>:
  7576: 032737 000024 177776	bit	$20, *$65534
  7604: 001052              	bne	07732 <SA7>
  7606: 010146              	mov	r1, -(sp)
  7610: 010627 000000       	mov	sp, $0
  7614: 010727 000000       	mov	pc, $0
  7620: 005267 177772       	inc	$07616 <SA2>
007624 <SA3>:
  7624: 016700 177766       	mov	$07614 <SA1+2>, r0
  7630: 010001              	mov	r0, r1
  7632: 010102              	mov	r1, r2
  7634: 010203              	mov	r2, r3
  7636: 010304              	mov	r3, r4
  7640: 010405              	mov	r4, r5
  7642: 152737 000340 177776	bisb	$224, *$65534
  7650: 010506              	mov	r5, sp
  7652: 010627 000000       	mov	sp, $0
  7656: 016706 177730       	mov	$07610 <GSTST+012>, sp
  7662: 142737 000340 177776	bicb	$224, *$65534
  7670: 026700 177760       	cmp	$07652 <SA3+026>, r0
  7674: 001004              	bne	07706 <SA5>
  7676: 006367 177714       	asl	$07616 <SA2>
  7702: 001350              	bne	07624 <SA3>
  7704: 000411              	br	07730 <SA6>
007706 <SA5>:
  7706: 010046              	mov	r0, -(sp)
  7710: 010146              	mov	r1, -(sp)
  7712: 010246              	mov	r2, -(sp)
  7714: 010346              	mov	r3, -(sp)
  7716: 010446              	mov	r4, -(sp)
  7720: 010546              	mov	r5, -(sp)
  7722: 104000              	emt	0
  7724: 016706 177662       	mov	$07610 <GSTST+012>, sp
007730 <SA6>:
  7730: 012601              	mov	(sp)+, r1
007732 <SA7>:
  7732: 104400              	sys	0
  7734: 000401              	br	07740 <SA7+6>
  7736: 000000              	halt
  7740: 010702              	mov	pc, r2
  7742: 162702 000004       	sub	$4, r2
  7746: 005012              	clr	(r2)
  7750: 000261              	.word	177
  7752: 006012              	ror	(r2)
  7754: 101402              	blos	07762 <ROR1>
  7756: 100001              	bpl	07762 <ROR1>
  7760: 002001              	bge	07764 <ROR1+2>
007762 <ROR1>:
  7762: 104000              	emt	0
  7764: 000257              	ccc
  7766: 000261              	.word	177
  7770: 005312              	dec	(r2)
  7772: 103001              	bcc	07776 <DEC1>
  7774: 003401              	ble	010000 <DEC1+2>
007776 <DEC1>:
  7776: 104000              	emt	0
 10000: 000257              	ccc
 10002: 000261              	.word	177
 10004: 005512              	adc	(r2)
 10006: 103403              	bcs	010016 <ADC1>
 10010: 102002              	bvc	010016 <ADC1>
 10012: 100001              	bpl	010016 <ADC1>
 10014: 001001              	bne	010020 <ADC1+2>
010016 <ADC1>:
 10016: 104000              	emt	0
 10020: 006112              	rol	(r2)
 10022: 103003              	bcc	010032 <ROL1>
 10024: 102002              	bvc	010032 <ROL1>
 10026: 001001              	bne	010032 <ROL1>
 10030: 100001              	bpl	010034 <ROL1+2>
010032 <ROL1>:
 10032: 104000              	emt	0
 10034: 006112              	rol	(r2)
 10036: 101402              	blos	010044 <ROL1A>
 10040: 102401              	bvs	010044 <ROL1A>
 10042: 100001              	bpl	010046 <ROL1A+2>
010044 <ROL1A>:
 10044: 104000              	emt	0
 10046: 006212              	asr	(r2)
 10050: 103003              	bcc	010060 <ASR1>
 10052: 102002              	bvc	010060 <ASR1>
 10054: 001001              	bne	010060 <ASR1>
 10056: 100001              	bpl	010062 <ASR1+2>
010060 <ASR1>:
 10060: 104000              	emt	0
 10062: 006012              	ror	(r2)
 10064: 103403              	bcs	010074 <ROR1A>
 10066: 102002              	bvc	010074 <ROR1A>
 10070: 001401              	beq	010074 <ROR1A>
 10072: 100401              	bmi	010076 <ROR1A+2>
010074 <ROR1A>:
 10074: 104000              	emt	0
 10076: 000261              	.word	177
 10100: 005212              	inc	(r2)
 10102: 103003              	bcc	010112 <INC1>
 10104: 102402              	bvs	010112 <INC1>
 10106: 001401              	beq	010112 <INC1>
 10110: 100401              	bmi	010114 <INC1+2>
010112 <INC1>:
 10112: 104000              	emt	0
 10114: 005612              	sbc	(r2)
 10116: 103403              	bcs	010126 <SBC1>
 10120: 102402              	bvs	010126 <SBC1>
 10122: 001401              	beq	010126 <SBC1>
 10124: 100401              	bmi	010130 <SBC1+2>
010126 <SBC1>:
 10126: 104000              	emt	0
 10130: 000261              	.word	177
 10132: 005612              	sbc	(r2)
 10134: 103403              	bcs	010144 <SBC1A>
 10136: 102002              	bvc	010144 <SBC1A>
 10140: 001401              	beq	010144 <SBC1A>
 10142: 100001              	bpl	010146 <SBC1A+2>
010144 <SBC1A>:
 10144: 104000              	emt	0
 10146: 000261              	.word	177
 10150: 005512              	adc	(r2)
 10152: 100401              	bmi	010156 <SBC1A+012>
 10154: 104000              	emt	0
 10156: 000261              	.word	177
 10160: 006312              	asl	(r2)
 10162: 103003              	bcc	010172 <ASL1>
 10164: 102002              	bvc	010172 <ASL1>
 10166: 001001              	bne	010172 <ASL1>
 10170: 100001              	bpl	010174 <ASL1+2>
010172 <ASL1>:
 10172: 104000              	emt	0
 10174: 005112              	com	(r2)
 10176: 103002              	bcc	010204 <COM1>
 10200: 102401              	bvs	010204 <COM1>
 10202: 100401              	bmi	010206 <COM1+2>
010204 <COM1>:
 10204: 104000              	emt	0
 10206: 000250              	cln
 10210: 005712              	tst	(r2)
 10212: 103403              	bcs	010222 <TST1>
 10214: 102402              	bvs	010222 <TST1>
 10216: 100001              	bpl	010222 <TST1>
 10220: 001001              	bne	010224 <TST1+2>
010222 <TST1>:
 10222: 104000              	emt	0
 10224: 000262              	sev
 10226: 005412              	neg	(r2)
 10230: 103002              	bcc	010236 <NEG1>
 10232: 102401              	bvs	010236 <NEG1>
 10234: 001001              	bne	010240 <NEG1+2>
010236 <NEG1>:
 10236: 104000              	emt	0
 10240: 005312              	dec	(r2)
 10242: 103001              	bcc	010246 <DEC1A>
 10244: 001401              	beq	010250 <DEC1A+2>
010246 <DEC1A>:
 10246: 104000              	emt	0
 10250: 104400              	sys	0
 10252: 000401              	br	010256 <DEC1A+010>
 10254: 000000              	halt
 10256: 010703              	mov	pc, r3
 10260: 162703 000004       	sub	$4, r3
 10264: 010304              	mov	r3, r4
 10266: 005204              	inc	r4
 10270: 005013              	clr	(r3)
010272 <SB1>:
 10272: 000261              	.word	177
 10274: 105513              	adcb	(r3)
 10276: 100402              	bmi	010304 <SB2>
 10300: 105214              	incb	(r4)
 10302: 000773              	br	010272 <SB1>
010304 <SB2>:
 10304: 102401              	bvs	010310 <SB2+4>
 10306: 104000              	emt	0
 10310: 000242              	clv
 10312: 105214              	incb	(r4)
 10314: 103402              	bcs	010322 <INCB1>
 10316: 102001              	bvc	010322 <INCB1>
 10320: 100401              	bmi	010324 <INCB1+2>
010322 <INCB1>:
 10322: 104000              	emt	0
 10324: 106114              	rolb	(r4)
 10326: 103002              	bcc	010334 <ROLB1>
 10330: 102001              	bvc	010334 <ROLB1>
 10332: 001401              	beq	010336 <ROLB1+2>
010334 <ROLB1>:
 10334: 104000              	emt	0
 10336: 105614              	sbcb	(r4)
 10340: 103002              	bcc	010346 <SBCB1>
 10342: 102401              	bvs	010346 <SBCB1>
 10344: 100401              	bmi	010350 <SBCB1+2>
010346 <SBCB1>:
 10346: 104000              	emt	0
 10350: 106313              	aslb	(r3)
 10352: 103002              	bcc	010360 <ASLB1>
 10354: 102001              	bvc	010360 <ASLB1>
 10356: 001401              	beq	010362 <ASLB1+2>
010360 <ASLB1>:
 10360: 104000              	emt	0
 10362: 105413              	negb	(r3)
 10364: 103402              	bcs	010372 <NEGB1>
 10366: 102401              	bvs	010372 <NEGB1>
 10370: 001401              	beq	010374 <NEGB1+2>
010372 <NEGB1>:
 10372: 104000              	emt	0
 10374: 000277              	scc
 10376: 105313              	decb	(r3)
 10400: 103002              	bcc	010406 <DECB1>
 10402: 102401              	bvs	010406 <DECB1>
 10404: 001001              	bne	010410 <DECB1+2>
010406 <DECB1>:
 10406: 104000              	emt	0
 10410: 000241              	clc
 10412: 106013              	rorb	(r3)
 10414: 103002              	bcc	010422 <RORB1>
 10416: 102001              	bvc	010422 <RORB1>
 10420: 100001              	bpl	010424 <RORB1+2>
010422 <RORB1>:
 10422: 104000              	emt	0
 10424: 000241              	clc
 10426: 105114              	comb	(r4)
 10430: 103002              	bcc	010436 <COMB1>
 10432: 102401              	bvs	010436 <COMB1>
 10434: 001401              	beq	010440 <SC1>
010436 <COMB1>:
 10436: 104000              	emt	0
010440 <SC1>:
 10440: 106213              	asrb	(r3)
 10442: 102002              	bvc	010450 <SC2>
 10444: 105514              	adcb	(r4)
 10446: 000774              	br	010440 <SC1>
010450 <SC2>:
 10450: 103401              	bcs	010454 <ASRB1>
 10452: 001401              	beq	010456 <ASRB1+2>
010454 <ASRB1>:
 10454: 104000              	emt	0
 10456: 106214              	asrb	(r4)
 10460: 106214              	asrb	(r4)
 10462: 103002              	bcc	010470 <ASRB1A>
 10464: 102001              	bvc	010470 <ASRB1A>
 10466: 001001              	bne	010472 <ASRB1A+2>
010470 <ASRB1A>:
 10470: 104000              	emt	0
 10472: 105314              	decb	(r4)
 10474: 001401              	beq	010500 <ASRB1A+010>
 10476: 104000              	emt	0
 10500: 000261              	.word	177
 10502: 106014              	rorb	(r4)
 10504: 103402              	bcs	010512 <RORB1A>
 10506: 102001              	bvc	010512 <RORB1A>
 10510: 100401              	bmi	010514 <RORB1A+2>
010512 <RORB1A>:
 10512: 104000              	emt	0
 10514: 000242              	clv
 10516: 105314              	decb	(r4)
 10520: 102401              	bvs	010524 <RORB1A+012>
 10522: 104000              	emt	0
 10524: 000261              	.word	177
 10526: 105313              	decb	(r3)
 10530: 103002              	bcc	010536 <DECB1A>
 10532: 102401              	bvs	010536 <DECB1A>
 10534: 100401              	bmi	010540 <DECB1A+2>
010536 <DECB1A>:
 10536: 104000              	emt	0
 10540: 000277              	scc
 10542: 000313              	swab	(r3)
 10544: 103402              	bcs	010552 <SWAB1>
 10546: 102401              	bvs	010552 <SWAB1>
 10550: 100001              	bpl	010554 <SWAB1+2>
010552 <SWAB1>:
 10552: 104000              	emt	0
 10554: 105714              	tstb	(r4)
 10556: 103402              	bcs	010564 <TSTB1>
 10560: 102401              	bvs	010564 <TSTB1>
 10562: 100401              	bmi	010566 <TSTB1+2>
010564 <TSTB1>:
 10564: 104000              	emt	0
 10566: 105014              	clrb	(r4)
 10570: 001401              	beq	010574 <TSTB1+010>
 10572: 104000              	emt	0
 10574: 106313              	aslb	(r3)
 10576: 103402              	bcs	010604 <ASLB1A>
 10600: 102001              	bvc	010604 <ASLB1A>
 10602: 100401              	bmi	010606 <ASLB1A+2>
010604 <ASLB1A>:
 10604: 104000              	emt	0
 10606: 105113              	comb	(r3)
 10610: 103002              	bcc	010616 <COMB1A>
 10612: 102401              	bvs	010616 <COMB1A>
 10614: 100001              	bpl	010620 <COMB1A+2>
010616 <COMB1A>:
 10616: 104000              	emt	0
 10620: 000313              	swab	(r3)
 10622: 001401              	beq	010626 <COMB1A+010>
 10624: 104000              	emt	0
 10626: 105213              	incb	(r3)
 10630: 000261              	.word	177
 10632: 105613              	sbcb	(r3)
 10634: 001401              	beq	010640 <COMB1A+022>
 10636: 104000              	emt	0
 10640: 022713 000400       	cmp	$256, (r3)
 10644: 001401              	beq	010650 <COMB1A+032>
 10646: 104000              	emt	0
 10650: 104400              	sys	0
 10652: 000401              	br	010656 <COMB1A+040>
 10654: 000000              	halt
 10656: 010704              	mov	pc, r4
 10660: 162704 000004       	sub	$4, r4
 10664: 010405              	mov	r4, r5
 10666: 005015              	clr	(r5)
 10670: 000277              	scc
 10672: 000244              	clz
 10674: 005725              	tst	(r5)+
 10676: 103402              	bcs	010704 <TST2>
 10700: 102401              	bvs	010704 <TST2>
 10702: 001401              	beq	010706 <TST2+2>
010704 <TST2>:
 10704: 104000              	emt	0
 10706: 005145              	com	-(r5)
 10710: 103001              	bcc	010714 <COM4>
 10712: 100401              	bmi	010716 <COM4+2>
010714 <COM4>:
 10714: 104000              	emt	0
 10716: 000241              	clc
 10720: 006024              	ror	(r4)+
 10722: 103002              	bcc	010730 <ROR2>
 10724: 102001              	bvc	010730 <ROR2>
 10726: 100001              	bpl	010732 <ROR2+2>
010730 <ROR2>:
 10730: 104000              	emt	0
 10732: 000257              	ccc
 10734: 005244              	inc	-(r4)
 10736: 102002              	bvc	010744 <INC4>
 10740: 001401              	beq	010744 <INC4>
 10742: 100401              	bmi	010746 <INC4+2>
010744 <INC4>:
 10744: 104000              	emt	0
 10746: 000261              	.word	177
 10750: 000324              	swab	(r4)+
 10752: 103401              	bcs	010756 <SWAB2>
 10754: 100401              	bmi	010760 <SWAB2+2>
010756 <SWAB2>:
 10756: 104000              	emt	0
 10760: 005425              	neg	(r5)+
 10762: 103001              	bcc	010766 <NEG2>
 10764: 100401              	bmi	010770 <NEG2+2>
010766 <NEG2>:
 10766: 104000              	emt	0
 10770: 005044              	clr	-(r4)
 10772: 001401              	beq	010776 <NEG2+010>
 10774: 104000              	emt	0
 10776: 000261              	.word	177
 11000: 006045              	ror	-(r5)
 11002: 000261              	.word	177
 11004: 005525              	adc	(r5)+
 11006: 102401              	bvs	011012 <ADC2>
 11010: 100401              	bmi	011014 <ADC2+2>
011012 <ADC2>:
 11012: 104000              	emt	0
 11014: 000262              	sev
 11016: 006224              	asr	(r4)+
 11020: 103002              	bcc	011026 <ASR2>
 11022: 102401              	bvs	011026 <ASR2>
 11024: 100401              	bmi	011030 <ASR2+2>
011026 <ASR2>:
 11026: 104000              	emt	0
 11030: 000262              	sev
 11032: 006144              	rol	-(r4)
 11034: 103002              	bcc	011042 <ROL4>
 11036: 102401              	bvs	011042 <ROL4>
 11040: 100401              	bmi	011044 <ROL4+2>
011042 <ROL4>:
 11042: 104000              	emt	0
 11044: 005645              	sbc	-(r5)
 11046: 103001              	bcc	011052 <ROL4+010>
 11050: 104000              	emt	0
 11052: 005325              	dec	(r5)+
 11054: 103402              	bcs	011062 <DEC2>
 11056: 102001              	bvc	011062 <DEC2>
 11060: 100001              	bpl	011064 <DEC2+2>
011062 <DEC2>:
 11062: 104000              	emt	0
 11064: 006324              	asl	(r4)+
 11066: 102401              	bvs	011072 <DEC2+010>
 11070: 104000              	emt	0
 11072: 006344              	asl	-(r4)
 11074: 103003              	bcc	011104 <ASL4>
 11076: 102402              	bvs	011104 <ASL4>
 11100: 001401              	beq	011104 <ASL4>
 11102: 100401              	bmi	011106 <ASL4+2>
011104 <ASL4>:
 11104: 104000              	emt	0
 11106: 022724 177774       	cmp	$-4, (r4)+
 11112: 001401              	beq	011116 <ASL4+012>
 11114: 104000              	emt	0
 11116: 020405              	cmp	r4, r5
 11120: 001401              	beq	011124 <ASL4+020>
 11122: 104000              	emt	0
 11124: 104400              	sys	0
 11126: 000401              	br	011132 <ASL4+026>
 11130: 000000              	halt
 11132: 010705              	mov	pc, r5
 11134: 162705 000004       	sub	$4, r5
 11140: 010500              	mov	r5, r0
 11142: 010002              	mov	r0, r2
 11144: 005202              	inc	r2
 11146: 005010              	clr	(r0)
 11150: 000277              	scc
 11152: 000241              	clc
 11154: 105125              	comb	(r5)+
 11156: 103002              	bcc	011164 <COMB2>
 11160: 102401              	bvs	011164 <COMB2>
 11162: 100401              	bmi	011166 <COMB2+2>
011164 <COMB2>:
 11164: 104000              	emt	0
 11166: 105542              	adcb	-(r2)
 11170: 001401              	beq	011174 <COMB2+010>
 11172: 104000              	emt	0
 11174: 105525              	adcb	(r5)+
 11176: 103401              	bcs	011202 <ADCB2>
 11200: 001001              	bne	011204 <ADCB2+2>
011202 <ADCB2>:
 11202: 104000              	emt	0
 11204: 000263              	se_3
 11206: 106045              	rorb	-(r5)
 11210: 103003              	bcc	011220 <RORB4>
 11212: 102402              	bvs	011220 <RORB4>
 11214: 001401              	beq	011220 <RORB4>
 11216: 100401              	bmi	011222 <RORB4+2>
011220 <RORB4>:
 11220: 104000              	emt	0
 11222: 000277              	scc
 11224: 106122              	rolb	(r2)+
 11226: 103403              	bcs	011236 <ROLB2>
 11230: 102402              	bvs	011236 <ROLB2>
 11232: 001401              	beq	011236 <ROLB2>
 11234: 100001              	bpl	011240 <ROLB2+2>
011236 <ROLB2>:
 11236: 104000              	emt	0
 11240: 000257              	ccc
 11242: 106225              	asrb	(r5)+
 11244: 103402              	bcs	011252 <ASRB2>
 11246: 102001              	bvc	011252 <ASRB2>
 11250: 100401              	bmi	011254 <ASRB2+2>
011252 <ASRB2>:
 11252: 104000              	emt	0
 11254: 105242              	incb	-(r2)
 11256: 000277              	scc
 11260: 106222              	asrb	(r2)+
 11262: 103402              	bcs	011270 <ASRB2A>
 11264: 102401              	bvs	011270 <ASRB2A>
 11266: 100001              	bpl	011272 <ASRB2A+2>
011270 <ASRB2A>:
 11270: 104000              	emt	0
 11272: 000266              	se_6
 11274: 106345              	aslb	-(r5)
 11276: 103002              	bcc	011304 <ASLB4>
 11300: 102401              	bvs	011304 <ASLB4>
 11302: 100401              	bmi	011306 <ASLB4+2>
011304 <ASLB4>:
 11304: 104000              	emt	0
 11306: 105322              	decb	(r2)+
 11310: 103002              	bcc	011316 <DECB2>
 11312: 102001              	bvc	011316 <DECB2>
 11314: 100001              	bpl	011320 <DECB2+2>
011316 <DECB2>:
 11316: 104000              	emt	0
 11320: 105645              	sbcb	-(r5)
 11322: 103402              	bcs	011330 <SBCB4>
 11324: 102401              	bvs	011330 <SBCB4>
 11326: 001401              	beq	011332 <SBCB4+2>
011330 <SBCB4>:
 11330: 104000              	emt	0
 11332: 105442              	negb	-(r2)
 11334: 103002              	bcc	011342 <NEGB4>
 11336: 102401              	bvs	011342 <NEGB4>
 11340: 100401              	bmi	011344 <NEGB4+2>
011342 <NEGB4>:
 11342: 104000              	emt	0
 11344: 105725              	tstb	(r5)+
 11346: 103401              	bcs	011352 <TSTB2>
 11350: 001401              	beq	011354 <TSTB2+2>
011352 <TSTB2>:
 11352: 104000              	emt	0
 11354: 105722              	tstb	(r2)+
 11356: 001401              	beq	011362 <TSTB2A>
 11360: 100401              	bmi	011364 <TSTB2A+2>
011362 <TSTB2A>:
 11362: 104000              	emt	0
 11364: 000261              	.word	177
 11366: 000342              	swab	-(r2)
 11370: 103401              	bcs	011374 <SWAB4>
 11372: 100401              	bmi	011376 <SWAB4+2>
011374 <SWAB4>:
 11374: 104000              	emt	0
 11376: 000277              	scc
 11400: 105225              	incb	(r5)+
 11402: 103003              	bcc	011412 <INCB2>
 11404: 102402              	bvs	011412 <INCB2>
 11406: 001401              	beq	011412 <INCB2>
 11410: 100001              	bpl	011414 <INCB2+2>
011412 <INCB2>:
 11412: 104000              	emt	0
 11414: 022227 000601       	cmp	(r2)+, $385
 11420: 001401              	beq	011424 <INCB2+012>
 11422: 104000              	emt	0
 11424: 020205              	cmp	r2, r5
 11426: 001401              	beq	011432 <INCB2+020>
 11430: 104000              	emt	0
 11432: 104400              	sys	0
 11434: 000402              	br	011442 <INCB2+030>
 11436: 000000              	halt
 11440: 000000              	halt
 11442: 010703              	mov	pc, r3
 11444: 162703 000004       	sub	$4, r3
 11450: 005013              	clr	(r3)
 11452: 010300              	mov	r3, r0
 11454: 005743              	tst	-(r3)
 11456: 010013              	mov	r0, (r3)
 11460: 010304              	mov	r3, r4
 11462: 000257              	ccc
 11464: 005733              	tst	*(r3)+
 11466: 001401              	beq	011472 <INCB2+060>
 11470: 104000              	emt	0
 11472: 000261              	.word	177
 11474: 006053              	ror	*-(r3)
 11476: 103402              	bcs	011504 <ROR5>
 11500: 102001              	bvc	011504 <ROR5>
 11502: 100401              	bmi	011506 <ROR5+2>
011504 <ROR5>:
 11504: 104000              	emt	0
 11506: 000257              	ccc
 11510: 006234              	asr	*(r4)+
 11512: 102001              	bvc	011516 <ASR3>
 11514: 100401              	bmi	011520 <ASR3+2>
011516 <ASR3>:
 11516: 104000              	emt	0
 11520: 000250              	cln
 11522: 006333              	asl	*(r3)+
 11524: 103002              	bcc	011532 <ASL3>
 11526: 102401              	bvs	011532 <ASL3>
 11530: 100401              	bmi	011534 <ASL3+2>
011532 <ASL3>:
 11532: 104000              	emt	0
 11534: 000277              	scc
 11536: 005354              	dec	*-(r4)
 11540: 103003              	bcc	011550 <DEC5>
 11542: 102002              	bvc	011550 <DEC5>
 11544: 001401              	beq	011550 <DEC5>
 11546: 100001              	bpl	011552 <DEC5+2>
011550 <DEC5>:
 11550: 104000              	emt	0
 11552: 005453              	neg	*-(r3)
 11554: 103002              	bcc	011562 <NEG5>
 11556: 102401              	bvs	011562 <NEG5>
 11560: 100401              	bmi	011564 <NEG5+2>
011562 <NEG5>:
 11562: 104000              	emt	0
 11564: 000262              	sev
 11566: 005134              	com	*(r4)+
 11570: 103001              	bcc	011574 <COM3>
 11572: 102001              	bvc	011576 <COM3+2>
011574 <COM3>:
 11574: 104000              	emt	0
 11576: 005233              	inc	*(r3)+
 11600: 103001              	bcc	011604 <INC3>
 11602: 100001              	bpl	011606 <INC3+2>
011604 <INC3>:
 11604: 104000              	emt	0
 11606: 005554              	adc	*-(r4)
 11610: 103402              	bcs	011616 <ADC5>
 11612: 102001              	bvc	011616 <ADC5>
 11614: 100401              	bmi	011620 <ADC5+2>
011616 <ADC5>:
 11616: 104000              	emt	0
 11620: 000257              	ccc
 11622: 006134              	rol	*(r4)+
 11624: 103002              	bcc	011632 <ROL3>
 11626: 102001              	bvc	011632 <ROL3>
 11630: 001401              	beq	011634 <ROL3+2>
011632 <ROL3>:
 11632: 104000              	emt	0
 11634: 005253              	inc	*-(r3)
 11636: 005654              	sbc	*-(r4)
 11640: 103401              	bcs	011644 <SBC5>
 11642: 001401              	beq	011646 <SBC5+2>
011644 <SBC5>:
 11644: 104000              	emt	0
 11646: 104400              	sys	0
 11650: 000403              	br	011660 <SBC5+014>
 11652: 000000              	halt
 11654: 000000              	halt
 11656: 000000              	halt
 11660: 010702              	mov	pc, r2
 11662: 005742              	tst	-(r2)
 11664: 005742              	tst	-(r2)
 11666: 010200              	mov	r2, r0
 11670: 005010              	clr	(r0)
 11672: 005742              	tst	-(r2)
 11674: 005742              	tst	-(r2)
 11676: 010022              	mov	r0, (r2)+
 11700: 005200              	inc	r0
 11702: 010022              	mov	r0, (r2)+
 11704: 010200              	mov	r2, r0
 11706: 010205              	mov	r2, r5
 11710: 105152              	comb	*-(r2)
 11712: 103001              	bcc	011716 <COMB5>
 11714: 100401              	bmi	011720 <COMB5+2>
011716 <COMB5>:
 11716: 104000              	emt	0
 11720: 105752              	tstb	*-(r2)
 11722: 001401              	beq	011726 <COMB5+010>
 11724: 104000              	emt	0
 11726: 000262              	sev
 11730: 106255              	asrb	*-(r5)
 11732: 103002              	bcc	011740 <ASRB5>
 11734: 102401              	bvs	011740 <ASRB5>
 11736: 100401              	bmi	011742 <ASRB5+2>
011740 <ASRB5>:
 11740: 104000              	emt	0
 11742: 105232              	incb	*(r2)+
 11744: 103001              	bcc	011750 <INCB3>
 11746: 100001              	bpl	011752 <INCB3+2>
011750 <INCB3>:
 11750: 104000              	emt	0
 11752: 000241              	clc
 11754: 106055              	rorb	*-(r5)
 11756: 103003              	bcc	011766 <RORB5>
 11760: 102002              	bvc	011766 <RORB5>
 11762: 001001              	bne	011766 <RORB5>
 11764: 100001              	bpl	011770 <RORB5+2>
011766 <RORB5>:
 11766: 104000              	emt	0
 11770: 106332              	aslb	*(r2)+
 11772: 103002              	bcc	012000 <ASLB3>
 11774: 102401              	bvs	012000 <ASLB3>
 11776: 100401              	bmi	012002 <ASLB3+2>
012000 <ASLB3>:
 12000: 104000              	emt	0
 12002: 105552              	adcb	*-(r2)
 12004: 103401              	bcs	012010 <ADCB5>
 12006: 100401              	bmi	012012 <ADCB5+2>
012010 <ADCB5>:
 12010: 104000              	emt	0
 12012: 000277              	scc
 12014: 106135              	rolb	*(r5)+
 12016: 101402              	blos	012024 <ROLB3>
 12020: 102401              	bvs	012024 <ROLB3>
 12022: 100001              	bpl	012026 <ROLB3+2>
012024 <ROLB3>:
 12024: 104000              	emt	0
 12026: 000352              	swab	*-(r2)
 12030: 100401              	bmi	012034 <ROLB3+010>
 12032: 104000              	emt	0
 12034: 000261              	.word	177
 12036: 105635              	sbcb	*(r5)+
 12040: 103401              	bcs	012044 <SBCB3>
 12042: 001401              	beq	012046 <SBCB3+2>
012044 <SBCB3>:
 12044: 104000              	emt	0
 12046: 105432              	negb	*(r2)+
 12050: 105352              	decb	*-(r2)
 12052: 103001              	bcc	012056 <DECB5>
 12054: 001401              	beq	012060 <DECB5+2>
012056 <DECB5>:
 12056: 104000              	emt	0
 12060: 104400              	sys	0
 12062: 005027 000000       	clr	$0
 12066: 010700              	mov	pc, r0
 12070: 024040              	cmp	-(r0), -(r0)
 12072: 000277              	scc
 12074: 006167 177764       	rol	$012064 <UWM6>
 12100: 103403              	bcs	012110 <ROL6>
 12102: 102402              	bvs	012110 <ROL6>
 12104: 001401              	beq	012110 <ROL6>
 12106: 100001              	bpl	012112 <ROL6+2>
012110 <ROL6>:
 12110: 104000              	emt	0
 12112: 005167 177746       	com	$012064 <UWM6>
 12116: 103002              	bcc	012124 <COM6>
 12120: 102401              	bvs	012124 <COM6>
 12122: 100401              	bmi	012126 <COM6+2>
012124 <COM6>:
 12124: 104000              	emt	0
 12126: 006267 177732       	asr	$012064 <UWM6>
 12132: 103402              	bcs	012140 <ASR6>
 12134: 102001              	bvc	012140 <ASR6>
 12136: 100401              	bmi	012142 <ASR6+2>
012140 <ASR6>:
 12140: 104000              	emt	0
 12142: 000277              	scc
 12144: 005467 177714       	neg	$012064 <UWM6>
 12150: 103003              	bcc	012160 <NEG6>
 12152: 102402              	bvs	012160 <NEG6>
 12154: 001401              	beq	012160 <NEG6>
 12156: 100001              	bpl	012162 <NEG6+2>
012160 <NEG6>:
 12160: 104000              	emt	0
 12162: 000277              	scc
 12164: 006067 177674       	ror	$012064 <UWM6>
 12170: 103003              	bcc	012200 <ROR6>
 12172: 102402              	bvs	012200 <ROR6>
 12174: 001401              	beq	012200 <ROR6>
 12176: 100401              	bmi	012202 <ROR6+2>
012200 <ROR6>:
 12200: 104000              	emt	0
 12202: 005667 177656       	sbc	$012064 <UWM6>
 12206: 103402              	bcs	012214 <SBC6>
 12210: 102001              	bvc	012214 <SBC6>
 12212: 100001              	bpl	012216 <SBC6+2>
012214 <SBC6>:
 12214: 104000              	emt	0
 12216: 000242              	clv
 12220: 005267 177640       	inc	$012064 <UWM6>
 12224: 103403              	bcs	012234 <INC6>
 12226: 102002              	bvc	012234 <INC6>
 12230: 001401              	beq	012234 <INC6>
 12232: 100401              	bmi	012236 <INC6+2>
012234 <INC6>:
 12234: 104000              	emt	0
 12236: 006267 177622       	asr	$012064 <UWM6>
 12242: 000261              	.word	177
 12244: 006367 177614       	asl	$012064 <UWM6>
 12250: 103002              	bcc	012256 <ASL6>
 12252: 102401              	bvs	012256 <ASL6>
 12254: 100401              	bmi	012260 <ASL6+2>
012256 <ASL6>:
 12256: 104000              	emt	0
 12260: 005367 177600       	dec	$012064 <UWM6>
 12264: 103002              	bcc	012272 <DEC6>
 12266: 102001              	bvc	012272 <DEC6>
 12270: 100001              	bpl	012274 <DEC6+2>
012272 <DEC6>:
 12272: 104000              	emt	0
 12274: 005567 177564       	adc	$012064 <UWM6>
 12300: 103402              	bcs	012306 <ADC6>
 12302: 102001              	bvc	012306 <ADC6>
 12304: 100401              	bmi	012310 <ADC6+2>
012306 <ADC6>:
 12306: 104000              	emt	0
 12310: 000242              	clv
 12312: 000367 177546       	swab	$012064 <UWM6>
 12316: 100401              	bmi	012322 <ADC6+014>
 12320: 104000              	emt	0
 12322: 022710 000200       	cmp	$128, (r0)
 12326: 001401              	beq	012332 <ADC6+024>
 12330: 104000              	emt	0
 12332: 104400              	sys	0
 12334: 012700 012676       	mov	$5566, r0
 12340: 063700 015742       	add	*$7138, r0
 12344: 005067 000326       	clr	$012676 <UBM6>
 12350: 000277              	scc
 12352: 000244              	clz
 12354: 105767 000316       	tstb	$012676 <UBM6>
 12360: 103403              	bcs	012370 <TSTB6>
 12362: 102402              	bvs	012370 <TSTB6>
 12364: 001001              	bne	012370 <TSTB6>
 12366: 100001              	bpl	012372 <TSTB6+2>
012370 <TSTB6>:
 12370: 104000              	emt	0
 12372: 000257              	ccc
 12374: 105767 000277       	tstb	$012677 <UBM6+1>
 12400: 001401              	beq	012404 <TSTB6+014>
 12402: 104000              	emt	0
 12404: 105667 000266       	sbcb	$012676 <UBM6>
 12410: 103402              	bcs	012416 <SBCB6>
 12412: 102401              	bvs	012416 <SBCB6>
 12414: 001401              	beq	012420 <SD1>
012416 <SBCB6>:
 12416: 104000              	emt	0
012420 <SD1>:
 12420: 000261              	.word	177
 12422: 105267 000250       	incb	$012676 <UBM6>
 12426: 100403              	bmi	012436 <SD2>
 12430: 105567 000243       	adcb	$012677 <UBM6+1>
 12434: 000771              	br	012420 <SD1>
012436 <SD2>:
 12436: 103001              	bcc	012442 <INCB6>
 12440: 102401              	bvs	012444 <INCB6+2>
012442 <INCB6>:
 12442: 104000              	emt	0
 12444: 106367 000226       	aslb	$012676 <UBM6>
 12450: 103003              	bcc	012460 <ASLB6>
 12452: 102002              	bvc	012460 <ASLB6>
 12454: 001001              	bne	012460 <ASLB6>
 12456: 100001              	bpl	012462 <ASLB6+2>
012460 <ASLB6>:
 12460: 104000              	emt	0
 12462: 000242              	clv
 12464: 105567 000207       	adcb	$012677 <UBM6+1>
 12470: 103402              	bcs	012476 <ADCB6>
 12472: 102001              	bvc	012476 <ADCB6>
 12474: 100401              	bmi	012500 <ADCB6+2>
012476 <ADCB6>:
 12476: 104000              	emt	0
 12500: 000261              	.word	177
 12502: 106067 000171       	rorb	$012677 <UBM6+1>
 12506: 103402              	bcs	012514 <RORB6>
 12510: 102001              	bvc	012514 <RORB6>
 12512: 100401              	bmi	012516 <RORB6+2>
012514 <RORB6>:
 12514: 104000              	emt	0
 12516: 105167 000154       	comb	$012676 <UBM6>
 12522: 103002              	bcc	012530 <COMB6>
 12524: 102401              	bvs	012530 <COMB6>
 12526: 100401              	bmi	012532 <COMB6+2>
012530 <COMB6>:
 12530: 104000              	emt	0
 12532: 000262              	sev
 12534: 105467 000137       	negb	$012677 <UBM6+1>
 12540: 103002              	bcc	012546 <NEGB6>
 12542: 102401              	bvs	012546 <NEGB6>
 12544: 100001              	bpl	012550 <NEGB6+2>
012546 <NEGB6>:
 12546: 104000              	emt	0
 12550: 106167 000123       	rolb	$012677 <UBM6+1>
 12554: 103402              	bcs	012562 <ROLB6>
 12556: 102001              	bvc	012562 <ROLB6>
 12560: 100401              	bmi	012564 <ROLB6+2>
012562 <ROLB6>:
 12562: 104000              	emt	0
 12564: 106267 000106       	asrb	$012676 <UBM6>
 12570: 103002              	bcc	012576 <ASRB6>
 12572: 102401              	bvs	012576 <ASRB6>
 12574: 100401              	bmi	012600 <ASRB6+2>
012576 <ASRB6>:
 12576: 104000              	emt	0
 12600: 105267 000072       	incb	$012676 <UBM6>
 12604: 103002              	bcc	012612 <INCB6A>
 12606: 102401              	bvs	012612 <INCB6A>
 12610: 001401              	beq	012614 <INCB6A+2>
012612 <INCB6A>:
 12612: 104000              	emt	0
 12614: 105367 000057       	decb	$012677 <UBM6+1>
 12620: 103003              	bcc	012630 <DECB6A>
 12622: 102402              	bvs	012630 <DECB6A>
 12624: 001401              	beq	012630 <DECB6A>
 12626: 100401              	bmi	012632 <DECB6A+2>
012630 <DECB6A>:
 12630: 104000              	emt	0
 12632: 000367 000040       	swab	$012676 <UBM6>
 12636: 103401              	bcs	012642 <SWAB6>
 12640: 100401              	bmi	012644 <SWAB6+2>
012642 <SWAB6>:
 12642: 104000              	emt	0
 12644: 106167 000026       	rolb	$012676 <UBM6>
 12650: 103002              	bcc	012656 <ROLB6A>
 12652: 102001              	bvc	012656 <ROLB6A>
 12654: 001401              	beq	012660 <ROLB6A+2>
012656 <ROLB6A>:
 12656: 104000              	emt	0
 12660: 005767 000012       	tst	$012676 <UBM6>
 12664: 103402              	bcs	012672 <TST6>
 12666: 102401              	bvs	012672 <TST6>
 12670: 001401              	beq	012674 <TST6+2>
012672 <TST6>:
 12672: 104000              	emt	0
 12674: 000401              	br	012700 <UBM6+2>
012676 <UBM6>:
 12676: 000000              	halt
 12700: 104400              	sys	0
 12702: 000277              	scc
 12704: 010700              	mov	pc, r0
 12706: 103002              	bcc	012714 <MOV0>
 12710: 102401              	bvs	012714 <MOV0>
 12712: 001001              	bne	012716 <MOV0+2>
012714 <MOV0>:
 12714: 104000              	emt	0
 12716: 010002              	mov	r0, r2
 12720: 000262              	sev
 12722: 160002              	sub	r0, r2
 12724: 103402              	bcs	012732 <SUB0>
 12726: 102401              	bvs	012732 <SUB0>
 12730: 001401              	beq	012734 <SUB0+2>
012732 <SUB0>:
 12732: 104000              	emt	0
 12734: 000244              	clz
 12736: 010203              	mov	r2, r3
 12740: 103401              	bcs	012744 <MOV0A>
 12742: 001401              	beq	012746 <MOV0A+2>
012744 <MOV0A>:
 12744: 104000              	emt	0
 12746: 000257              	ccc
 12750: 000272              	se_a
 12752: 020203              	cmp	r2, r3
 12754: 103403              	bcs	012764 <CMP0>
 12756: 102402              	bvs	012764 <CMP0>
 12760: 001001              	bne	012764 <CMP0>
 12762: 100001              	bpl	012766 <CMP0+2>
012764 <CMP0>:
 12764: 104000              	emt	0
 12766: 010002              	mov	r0, r2
 12770: 010203              	mov	r2, r3
 12772: 060203              	add	r2, r3
 12774: 006302              	asl	r2
 12776: 020203              	cmp	r2, r3
 13000: 001401              	beq	013004 <CMP0+020>
 13002: 104000              	emt	0
 13004: 104400              	sys	0
 13006: 005002              	clr	r2
 13010: 005202              	inc	r2
 13012: 000402              	br	013020 <SE2>
013014 <SE1>:
 13014: 006302              	asl	r2
 13016: 100407              	bmi	013036 <SE4>
013020 <SE2>:
 13020: 010205              	mov	r2, r5
 13022: 000277              	scc
 13024: 030205              	bit	r2, r5
 13026: 103002              	bcc	013034 <SE3>
 13030: 102401              	bvs	013034 <SE3>
 13032: 001370              	bne	013014 <SE1>
013034 <SE3>:
 13034: 104000              	emt	0
013036 <SE4>:
 13036: 010205              	mov	r2, r5
 13040: 000257              	ccc
 13042: 030205              	bit	r2, r5
 13044: 100401              	bmi	013050 <SE4+012>
 13046: 104000              	emt	0
 13050: 005002              	clr	r2
 13052: 000277              	scc
 13054: 050002              	bis	r0, r2
 13056: 103002              	bcc	013064 <BIS0>
 13060: 102401              	bvs	013064 <BIS0>
 13062: 001001              	bne	013066 <BIS0+2>
013064 <BIS0>:
 13064: 104000              	emt	0
 13066: 010203              	mov	r2, r3
 13070: 000277              	scc
 13072: 000244              	clz
 13074: 040003              	bic	r0, r3
 13076: 103003              	bcc	013106 <BIC0>
 13100: 102402              	bvs	013106 <BIC0>
 13102: 001001              	bne	013106 <BIC0>
 13104: 100001              	bpl	013110 <BIC0+2>
013106 <BIC0>:
 13106: 104000              	emt	0
 13110: 010004              	mov	r0, r4
 13112: 005104              	com	r4
 13114: 040004              	bic	r0, r4
 13116: 005104              	com	r4
 13120: 020004              	cmp	r0, r4
 13122: 001401              	beq	013126 <BIC0+020>
 13124: 104000              	emt	0
 13126: 010004              	mov	r0, r4
 13130: 005104              	com	r4
 13132: 010403              	mov	r4, r3
 13134: 050003              	bis	r0, r3
 13136: 103001              	bcc	013142 <BIS0A>
 13140: 100401              	bmi	013144 <BIS0A+2>
013142 <BIS0A>:
 13142: 104000              	emt	0
 13144: 005203              	inc	r3
 13146: 001401              	beq	013152 <BIS0A+010>
 13150: 104000              	emt	0
 13152: 010304              	mov	r3, r4
 13154: 005103              	com	r3
 13156: 000261              	.word	177
 13160: 006004              	ror	r4
 13162: 060304              	add	r3, r4
 13164: 103003              	bcc	013174 <ADD0>
 13166: 102002              	bvc	013174 <ADD0>
 13170: 001401              	beq	013174 <ADD0>
 13172: 100001              	bpl	013176 <ADD0+2>
013174 <ADD0>:
 13174: 104000              	emt	0
 13176: 010700              	mov	pc, r0
 13200: 022020              	cmp	(r0)+, (r0)+
 13202: 020007              	cmp	r0, pc
 13204: 001401              	beq	013210 <ADD0+014>
 13206: 104000              	emt	0
 13210: 010700              	mov	pc, r0
 13212: 062700 000010       	add	$8, r0
 13216: 010002              	mov	r0, r2
 13220: 020700              	cmp	pc, r0
 13222: 001001              	bne	013226 <CMP0A>
 13224: 001401              	beq	013230 <CMP0A+2>
013226 <CMP0A>:
 13226: 104000              	emt	0
 13230: 104400              	sys	0
 13232: 012703 125252       	mov	$-21846, r3
 13236: 010304              	mov	r3, r4
 13240: 140304              	bicb	r3, r4
 13242: 022704 125000       	cmp	$-22016, r4
 13246: 001401              	beq	013252 <CMP0A+024>
 13250: 104000              	emt	0
 13252: 005004              	clr	r4
 13254: 150304              	bisb	r3, r4
 13256: 022704 000252       	cmp	$170, r4
 13262: 001401              	beq	013266 <CMP0A+040>
 13264: 104000              	emt	0
 13266: 110404              	movb	r4, r4
 13270: 022704 177652       	cmp	$-86, r4
 13274: 001401              	beq	013300 <CMP0A+052>
 13276: 104000              	emt	0
 13300: 132704 177525       	bitb	$-171, r4
 13304: 001401              	beq	013310 <CMP0A+062>
 13306: 104000              	emt	0
 13310: 105104              	comb	r4
 13312: 110404              	movb	r4, r4
 13314: 022704 000125       	cmp	$85, r4
 13320: 001401              	beq	013324 <CMP0A+076>
 13322: 104000              	emt	0
 13324: 150304              	bisb	r3, r4
 13326: 105204              	incb	r4
 13330: 005704              	tst	r4
 13332: 001401              	beq	013336 <CMP0A+0110>
 13334: 104000              	emt	0
 13336: 104400              	sys	0
 13340: 010700              	mov	pc, r0
 13342: 062700 000012       	add	$10, r0
 13346: 000277              	scc
 13350: 000110              	jmp	(r0)
 13352: 000402              	br	013360 <CMP0A+0132>
 13354: 000250              	cln
 13356: 000401              	br	013362 <CMP0A+0134>
 13360: 103003              	bcc	013370 <JMP1>
 13362: 102002              	bvc	013370 <JMP1>
 13364: 001001              	bne	013370 <JMP1>
 13366: 100001              	bpl	013372 <JMP1+2>
013370 <JMP1>:
 13370: 104000              	emt	0
 13372: 005002              	clr	r2
 13374: 010703              	mov	pc, r3
 13376: 000401              	br	013402 <JMP1+012>
 13400: 000000              	halt
 13402: 005723              	tst	(r3)+
 13404: 010313              	mov	r3, (r3)
 13406: 010300              	mov	r3, r0
 13410: 062713 000022       	add	$18, (r3)
 13414: 010300              	mov	r3, r0
 13416: 000133              	jmp	*(r3)+
 13420: 000402              	br	013426 <JMP1+036>
 13422: 005102              	com	r2
 13424: 000775              	br	013420 <JMP1+030>
 13426: 005202              	inc	r2
 13430: 001003              	bne	013440 <JMP3>
 13432: 005720              	tst	(r0)+
 13434: 020003              	cmp	r0, r3
 13436: 001401              	beq	013442 <JMP3+2>
013440 <JMP3>:
 13440: 104000              	emt	0
 13442: 005002              	clr	r2
 13444: 010704              	mov	pc, r4
 13446: 010400              	mov	r4, r0
 13450: 000402              	br	013456 <SF1>
 13452: 005102              	com	r2
 13454: 000403              	br	013464 <SF2>
013456 <SF1>:
 13456: 022424              	cmp	(r4)+, (r4)+
 13460: 005724              	tst	(r4)+
 13462: 000144              	jmp	-(r4)
013464 <SF2>:
 13464: 005202              	inc	r2
 13466: 001003              	bne	013476 <JMP4>
 13470: 022020              	cmp	(r0)+, (r0)+
 13472: 020004              	cmp	r0, r4
 13474: 001401              	beq	013500 <JMP4+2>
013476 <JMP4>:
 13476: 104000              	emt	0
 13500: 010703              	mov	pc, r3
 13502: 000401              	br	013506 <SG1+2>
013504 <SG1>:
 13504: 000000              	halt
 13506: 005723              	tst	(r3)+
 13510: 010313              	mov	r3, (r3)
 13512: 062723 000016       	add	$14, (r3)+
 13516: 010300              	mov	r3, r0
 13520: 000402              	br	013526 <SG3>
013522 <SG2>:
 13522: 005102              	com	r2
 13524: 000401              	br	013530 <SG4>
013526 <SG3>:
 13526: 000153              	jmp	*-(r3)
013530 <SG4>:
 13530: 005202              	inc	r2
 13532: 001003              	bne	013542 <JMP5>
 13534: 005740              	tst	-(r0)
 13536: 020003              	cmp	r0, r3
 13540: 001401              	beq	013544 <JMP5+2>
013542 <JMP5>:
 13542: 104000              	emt	0
 13544: 000402              	br	013552 <SH2>
013546 <SH1>:
 13546: 005102              	com	r2
 13550: 000402              	br	013556 <SH3>
013552 <SH2>:
 13552: 000167 177770       	jmp	013546 <SH1>
013556 <SH3>:
 13556: 005202              	inc	r2
 13560: 001401              	beq	013564 <XOR1>
013562 <JMP6>:
 13562: 104000              	emt	0
013564 <JSRTST>:
013564 <XOR1>:
 13564: 012702 000010       	mov	$8, r2
 13570: 012701 052525       	mov	$21845, r1
 13574: 012767 177777 002174	mov	$-1, $015776 <TEMP>
 13602: 074162 015766       	xor	r1, 7158(r2)
 13606: 022767 125252 002162	cmp	$-21846, $015776 <TEMP>
 13614: 001401              	beq	013620 <XOR1A>
 13616: 104000              	emt	0
013620 <XOR1A>:
 13620: 104400              	sys	0
 13622: 012703 125252       	mov	$-21846, r3
 13626: 012704 000010       	mov	$8, r4
 13632: 012767 016010 002162	mov	$7176, $016022 <X+010>
 13640: 012767 177777 002142	mov	$-1, $016010 <Y>
 13646: 074374 016012       	xor	r3, *7178(r4)
 13652: 022767 052525 002130	cmp	$21845, $016010 <Y>
 13660: 001401              	beq	013664 <XOR1B>
 13662: 104000              	emt	0
013664 <XOR1B>:
 13664: 104400              	sys	0
013666 <SOB0>:
 13666: 000401              	br	013672 <SOB1>
013670 <SOB2>:
 13670: 000404              	br	013702 <SOB3>
013672 <SOB1>:
 13672: 012701 000010       	mov	$8, r1
 13676: 077104              	sob	r1, 013670 <SOB2>
 13700: 104000              	emt	0
013702 <SOB3>:
 13702: 000401              	br	013706 <SOB4>
013704 <SOB5>:
 13704: 104000              	emt	0
013706 <SOB4>:
 13706: 012701 000001       	mov	$1, r1
 13712: 077104              	sob	r1, 013704 <SOB5>
 13714: 104400              	sys	0
013716 <MA0>:
 13716: 012706 016160       	mov	$7280, sp
 13722: 005001              	clr	r1
 13724: 012746 000007       	mov	$7, -(sp)
 13730: 012746 000001       	mov	$1, -(sp)
 13734: 012746 006402       	mov	$3330, -(sp)
 13740: 010605              	mov	sp, r5
 13742: 004767 000002       	jsr	pc, 013750 <MARK0>
 13746: 000403              	br	013756 <MARK0A>
013750 <MARK0>:
 13750: 016501 000002       	mov	2(r5), r1
 13754: 000205              	rts	r5
013756 <MARK0A>:
 13756: 022701 000001       	cmp	$1, r1
 13762: 001401              	beq	013766 <MA2>
 13764: 104000              	emt	0
013766 <MA2>:
 13766: 022706 016160       	cmp	$7280, sp
 13772: 001401              	beq	013776 <MA3>
 13774: 104000              	emt	0
013776 <MA3>:
 13776: 022705 000007       	cmp	$7, r5
 14002: 001401              	beq	014006 <SXT1>
 14004: 104000              	emt	0
014006 <MA4>:
014006 <SXT1>:
 14006: 012702 000010       	mov	$8, r2
 14012: 005067 001760       	clr	$015776 <TEMP>
 14016: 012767 177777 001752	mov	$-1, $015776 <TEMP>
 14024: 000257              	ccc
 14026: 006762 015766       	sxt	7158(r2)
 14032: 005767 001740       	tst	$015776 <TEMP>
 14036: 001401              	beq	014042 <SXT2>
 14040: 104000              	emt	0
014042 <SXT2>:
 14042: 005067 001730       	clr	$015776 <TEMP>
 14046: 000277              	scc
 14050: 006767 001722       	sxt	$015776 <TEMP>
 14054: 022767 177777 001714	cmp	$-1, $015776 <TEMP>
 14062: 001401              	beq	014066 <MUL1>
 14064: 104000              	emt	0
014066 <MUL1>:
 14066: 005003              	clr	r3
 14070: 012702 000005       	mov	$5, r2
 14074: 005067 002020       	clr	$016120 <PLIER>
 14100: 012767 000002 002012	mov	$2, $016120 <PLIER>
 14106: 000277              	scc
 14110: 070267 002004       	mul	$016120 <PLIER>, r2
 14114: 100402              	bmi	014122 <MUL1E>
 14116: 101401              	blos	014122 <MUL1E>
 14120: 102001              	bvc	014124 <MUL1A>
014122 <MUL1E>:
 14122: 104000              	emt	0
014124 <MUL1A>:
 14124: 022703 000012       	cmp	$10, r3
 14130: 001401              	beq	014134 <MUL1B>
 14132: 104000              	emt	0
014134 <MUL1B>:
 14134: 005702              	tst	r2
 14136: 001401              	beq	014142 <MUL2>
 14140: 104000              	emt	0
014142 <MUL2>:
 14142: 005003              	clr	r3
 14144: 005067 001750       	clr	$016120 <PLIER>
 14150: 012702 125252       	mov	$-21846, r2
 14154: 012767 000002 001736	mov	$2, $016120 <PLIER>
 14162: 070267 001732       	mul	$016120 <PLIER>, r2
 14166: 103003              	bcc	014176 <MUL2E>
 14170: 100002              	bpl	014176 <MUL2E>
 14172: 102401              	bvs	014176 <MUL2E>
 14174: 001001              	bne	014200 <MUL2A>
014176 <MUL2E>:
 14176: 104000              	emt	0
014200 <MUL2A>:
 14200: 022702 177777       	cmp	$-1, r2
 14204: 001401              	beq	014210 <MUL2B>
 14206: 104000              	emt	0
014210 <MUL2B>:
 14210: 022703 052524       	cmp	$21844, r3
 14214: 001401              	beq	014220 <ASH1>
 14216: 104000              	emt	0
014220 <ASH1>:
 14220: 005067 001674       	clr	$016120 <PLIER>
 14224: 012767 000001 001666	mov	$1, $016120 <PLIER>
 14232: 012702 125252       	mov	$-21846, r2
 14236: 000257              	ccc
 14240: 000264              	sez
 14242: 000270              	sen
 14244: 072267 001650       	ash	$016120 <PLIER>, r2
 14250: 100403              	bmi	014260 <ASH1E>
 14252: 001402              	beq	014260 <ASH1E>
 14254: 102001              	bvc	014260 <ASH1E>
 14256: 103401              	bcs	014262 <ASH1B>
014260 <ASH1E>:
 14260: 104000              	emt	0
014262 <ASH1B>:
 14262: 022702 052524       	cmp	$21844, r2
 14266: 001401              	beq	014272 <ASH2>
 14270: 104000              	emt	0
014272 <ASH2>:
 14272: 005067 001622       	clr	$016120 <PLIER>
 14276: 012767 177777 001614	mov	$-1, $016120 <PLIER>
 14304: 012701 052525       	mov	$21845, r1
 14310: 072167 001604       	ash	$016120 <PLIER>, r1
 14314: 020127 025252       	cmp	r1, $10922
 14320: 001401              	beq	014324 <ASHC1>
 14322: 104000              	emt	0
014324 <ASHC1>:
 14324: 005002              	clr	r2
 14326: 005067 001566       	clr	$016120 <PLIER>
 14332: 012767 000020 001560	mov	$16, $016120 <PLIER>
 14340: 012703 125252       	mov	$-21846, r3
 14344: 000257              	ccc
 14346: 000264              	sez
 14350: 000261              	.word	177
 14352: 073267 001542       	ashc	$016120 <PLIER>, r2
 14356: 100003              	bpl	014366 <ASHC1E>
 14360: 001402              	beq	014366 <ASHC1E>
 14362: 102001              	bvc	014366 <ASHC1E>
 14364: 103001              	bcc	014370 <ASHC1B>
014366 <ASHC1E>:
 14366: 104000              	emt	0
014370 <ASHC1B>:
 14370: 022702 125252       	cmp	$-21846, r2
 14374: 001401              	beq	014400 <ASHC1C>
 14376: 104000              	emt	0
014400 <ASHC1C>:
 14400: 005703              	tst	r3
 14402: 001401              	beq	014406 <ASHC2>
 14404: 104000              	emt	0
014406 <ASHC2>:
 14406: 005003              	clr	r3
 14410: 005067 001504       	clr	$016120 <PLIER>
 14414: 012767 177760 001476	mov	$-16, $016120 <PLIER>
 14422: 012702 125252       	mov	$-21846, r2
 14426: 000250              	cln
 14430: 000264              	sez
 14432: 000262              	sev
 14434: 000261              	.word	177
 14436: 073267 001456       	ashc	$016120 <PLIER>, r2
 14442: 100002              	bpl	014450 <ASHC2E>
 14444: 101401              	blos	014450 <ASHC2E>
 14446: 102001              	bvc	014452 <ASHC2B>
014450 <ASHC2E>:
 14450: 104000              	emt	0
014452 <ASHC2B>:
 14452: 022702 177777       	cmp	$-1, r2
 14456: 001401              	beq	014462 <ASHC2C>
 14460: 104000              	emt	0
014462 <ASHC2C>:
 14462: 022703 125252       	cmp	$-21846, r3
 14466: 001401              	beq	014472 <DIV1>
 14470: 104000              	emt	0
014472 <DIV1>:
 14472: 012701 000004       	mov	$4, r1
 14476: 005002              	clr	r2
 14500: 012703 052525       	mov	$21845, r3
 14504: 000277              	scc
 14506: 071261 015744       	div	7140(r1), r2
 14512: 100402              	bmi	014520 <DIV1E>
 14514: 101401              	blos	014520 <DIV1E>
 14516: 102001              	bvc	014522 <DIV1B>
014520 <DIV1E>:
 14520: 104000              	emt	0
014522 <DIV1B>:
 14522: 020227 000001       	cmp	r2, $1
 14526: 001401              	beq	014532 <DIV1C>
 14530: 104000              	emt	0
014532 <DIV1C>:
 14532: 005703              	tst	r3
 14534: 001401              	beq	014540 <DIV2>
 14536: 104000              	emt	0
014540 <DIV2>:
 14540: 005067 001354       	clr	$016120 <PLIER>
 14544: 012704 157777       	mov	$-8193, r4
 14550: 012705 100001       	mov	$-32767, r5
 14554: 012767 100000 001336	mov	$-32768, $016120 <PLIER>
 14562: 000277              	scc
 14564: 071467 001330       	div	$016120 <PLIER>, r4
 14570: 100402              	bmi	014576 <DIV2E>
 14572: 101401              	blos	014576 <DIV2E>
 14574: 102001              	bvc	014600 <DIV2B>
014576 <DIV2E>:
 14576: 104000              	emt	0
014600 <DIV2B>:
 14600: 020427 040000       	cmp	r4, $16384
 14604: 001401              	beq	014610 <DIV2C>
 14606: 104000              	emt	0
014610 <DIV2C>:
 14610: 020527 100001       	cmp	r5, $-32767
 14614: 001401              	beq	014620 <DIV2X>
 14616: 104000              	emt	0
014620 <DIV2X>:
 14620: 012767 015656 163176	mov	$7086, $024 <.text+024>
 14626: 012767 000340 163172	mov	$224, $026 <.text+026>
014634 <PAGE26>:
 14634: 012737 000052 177566	mov	$42, *$65398
 14642: 105737 177564       	tstb	*$65396
 14646: 100375              	bpl	014642 <PAGE26+6>
 14650: 012737 000012 177566	mov	$10, *$65398
 14656: 105737 177564       	tstb	*$65396
 14662: 100375              	bpl	014656 <PAGE26+022>
014664 <TRTRAP>:
 14664: 032767 023420 162676	bit	$10000, $037777777570 <.bss-016372>
 14672: 001417              	beq	014732 <YESTR>
 14674: 005767 000100       	tst	$015000 <YESTR1>
 14700: 001411              	beq	014724 <TRPA>
 14702: 016767 000072 163104	mov	$015000 <YESTR1>, $12 <.text+014>
 14710: 016767 000066 163100	mov	$015002 <YESTR2>, $14 <.text+016>
 14716: 042767 000020 163052	bic	$16, $037777777776 <.bss-016164>
014724 <TRPA>:
 14724: 000167 163250       	jmp	0200 <BEGIN>
014730 <TRPB>:
 14730: 000000              	halt
014732 <YESTR>:
 14732: 016767 163056 000040	mov	$12 <.text+014>, $015000 <YESTR1>
 14740: 016767 163052 000034	mov	$14 <.text+016>, $015002 <YESTR2>
 14746: 012767 015004 163040	mov	$6660, $12 <.text+014>
 14754: 005067 163036       	clr	$14 <.text+016>
 14760: 005167 177744       	com	$014730 <TRPB>
 14764: 100403              	bmi	014774 <YESTR+042>
 14766: 052767 000020 163002	bis	$16, $037777777776 <.bss-016164>
 14774: 000167 163200       	jmp	0200 <BEGIN>
015000 <YESTR1>:
 15000: 000000              	halt
015002 <YESTR2>:
 15002: 000000              	halt
015004 <YESRT>:
 15004: 000002              	rti
 15006: 000000              	halt
015010 <PRINT>:
 15010: 036727 162554 020000	bit	$037777777570 <.bss-016372>, $8192
 15016: 001401              	beq	015022 <PRINT+012>
 15020: 000002              	rti
 15022: 012667 000146       	mov	(sp)+, $015174 <SAVPC>
 15026: 012667 000144       	mov	(sp)+, $015176 <SAVCC>
 15032: 024646              	cmp	-(sp), -(sp)
 15034: 012777 000215 000126	mov	$141, *$015170 <TDBR>
 15042: 105777 000124       	tstb	*$015172 <TCSR>
 15046: 100375              	bpl	015042 <PRINT+032>
 15050: 012777 000212 000112	mov	$138, *$015170 <TDBR>
 15056: 105777 000110       	tstb	*$015172 <TCSR>
 15062: 100375              	bpl	015056 <PRINT+046>
 15064: 010267 000072       	mov	r2, $015162 <PAGE27>
 15070: 010367 000070       	mov	r3, $015164 <SAVR3>
 15074: 010467 000066       	mov	r4, $015166 <SAVR4>
 15100: 016702 000070       	mov	$015172 <TCSR>, r2
 15104: 004767 000070       	jsr	pc, 015200 <PRTAB>
 15110: 012777 000240 000052	mov	$160, *$015170 <TDBR>
 15116: 105777 000050       	tstb	*$015172 <TCSR>
 15122: 100375              	bpl	015116 <PRINT+0106>
 15124: 016702 000046       	mov	$015174 <SAVPC>, r2
 15130: 004767 000044       	jsr	pc, 015200 <PRTAB>
 15134: 016702 000022       	mov	$015160 <PRINT+0150>, r2
 15140: 016703 000020       	mov	$015162 <PAGE27>, r3
 15144: 016704 000016       	mov	$015164 <SAVR3>, r4
 15150: 005767 162414       	tst	$037777777570 <.bss-016372>
 15154: 100001              	bpl	015160 <PRINT+0150>
 15156: 000000              	halt
 15160: 000002              	rti
015162 <SAVR2>:
015162 <PAGE27>:
 15162: 000000              	halt
015164 <SAVR3>:
 15164: 000000              	halt
015166 <SAVR4>:
 15166: 000000              	halt
015170 <TDBR>:
 15170: 177566 177564       	ldcff	-140(sp), fr1
015174 <SAVPC>:
 15174: 000000              	halt
015176 <SAVCC>:
 15176: 000000              	halt
015200 <PRTAB>:
 15200: 005067 000260       	clr	$015464 <BINCT>
 15204: 005067 000252       	clr	$015462 <WGTCT>
 15210: 012704 015470       	mov	$6968, r4
 15214: 142777 000177 177750	bicb	$127, *$015172 <TCSR>
 15222: 012767 000005 000236	mov	$5, $015466 <ASCNT>
 15230: 012767 000007 000220	mov	$7, $015456 <SEVEN>
 15236: 012767 000001 000214	mov	$1, $015460 <DECML>
015244 <WAIT1>:
 15244: 105777 177722       	tstb	*$015172 <TCSR>
 15250: 100375              	bpl	015244 <WAIT1>
 15252: 005702              	tst	r2
 15254: 100404              	bmi	015266 <MINUS>
 15256: 012777 000260 177704	mov	$176, *$015170 <TDBR>
 15264: 000403              	br	015274 <START>
015266 <MINUS>:
 15266: 012777 000261 177674	mov	$177, *$015170 <TDBR>
015274 <START>:
 15274: 016703 000156       	mov	$015454 <TOODLE>, r3
 15300: 010267 000150       	mov	r2, $015454 <TOODLE>
 15304: 005167 000144       	com	$015454 <TOODLE>
 15310: 046703 000140       	bic	$015452 <HDFHM+6>, r3
 15314: 001410              	beq	015336 <WRTOC>
015316 <MKNUM>:
 15316: 066767 000136 000136	add	$015460 <DECML>, $015462 <WGTCT>
 15324: 005267 000134       	inc	$015464 <BINCT>
 15330: 026703 000126       	cmp	$015460 <DECML>, r3
 15334: 001370              	bne	015316 <MKNUM>
015336 <WRTOC>:
 15336: 062767 000260 000120	add	$176, $015464 <BINCT>
 15344: 016724 000114       	mov	$015462 <WGTCT>, (r4)+
 15350: 066767 000102 000102	add	$015456 <SEVEN>, $015460 <DECML>
 15356: 005067 000100       	clr	$015462 <WGTCT>
 15362: 005067 000076       	clr	$015464 <BINCT>
 15366: 005367 000074       	dec	$015466 <ASCNT>
 15372: 001410              	beq	015414 <XLIST>
 15374: 012703 000003       	mov	$3, r3
015400 <MOADD>:
 15400: 066767 000052 000050	add	$015456 <SEVEN>, $015456 <SEVEN>
 15406: 005303              	dec	r3
 15410: 001373              	bne	015400 <MOADD>
 15412: 000730              	br	015274 <START>
015414 <XLIST>:
 15414: 012767 000005 000044	mov	$5, $015466 <ASCNT>
015422 <WAIT2>:
 15422: 105777 177544       	tstb	*$015172 <TCSR>
 15426: 100375              	bpl	015422 <WAIT2>
 15430: 014477 177534       	mov	-(r4), *$015170 <TDBR>
 15434: 005367 000026       	dec	$015466 <ASCNT>
 15440: 001401              	beq	015444 <HDFHM>
 15442: 000767              	br	015422 <WAIT2>
015444 <HDFHM>:
 15444: 105777 177522       	tstb	*$015172 <TCSR>
 15450: 100375              	bpl	015444 <HDFHM>
 15452: 000207              	rts	pc
015454 <TOODLE>:
 15454: 000000              	halt
015456 <SEVEN>:
 15456: 000000              	halt
015460 <DECML>:
 15460: 000000              	halt
015462 <WGTCT>:
 15462: 000000              	halt
015464 <BINCT>:
 15464: 000000              	halt
015466 <ASCNT>:
 15466: 000000              	halt
015470 <LIST>:
 15470: 000000              	halt
 15472: 000000              	halt
 15474: 000000              	halt
 15476: 000000              	halt
 15500: 000000              	halt
015502 <SCOPEA>:
 15502: 032767 116100 162060	bit	$-25536, $037777777570 <.bss-016372>
 15510: 001003              	bne	015520 <SCOPEB>
 15512: 011667 000070       	mov	(sp), $015606 <RETURN>
 15516: 000002              	rti
015520 <SCOPEB>:
 15520: 022606              	cmp	(sp)+, sp
 15522: 012667 162250       	mov	(sp)+, $037777777776 <.bss-016164>
 15526: 000177 000054       	jmp	*015606 <RETURN>
015532 <SCOPEC>:
 15532: 032767 116100 162030	bit	$-25536, $037777777570 <.bss-016372>
 15540: 001367              	bne	015520 <SCOPEB>
 15542: 032767 116100 162020	bit	$-25536, $037777777570 <.bss-016372>
 15550: 001007              	bne	015570 <SCOPEG>
 15552: 026727 000026 000144	cmp	$015604 <SCOPEF>, $100
 15560: 001403              	beq	015570 <SCOPEG>
 15562: 005267 000016       	inc	$015604 <SCOPEF>
 15566: 000754              	br	015520 <SCOPEB>
015570 <SCOPEG>:
 15570: 005067 000010       	clr	$015604 <SCOPEF>
 15574: 011667 000006       	mov	(sp), $015606 <RETURN>
 15600: 000002              	rti
015602 <ICOUNT>:
 15602: 000400              	br	015604 <SCOPEF>
015604 <SCOPEF>:
 15604: 000000              	halt
015606 <RETURN>:
 15606: 000200              	rts	r0
 15610: 000167 162364       	jmp	0200 <BEGIN>
015614 <SUBR1>:
 15614: 000207              	rts	pc
015616 <SUBR2>:
 15616: 005167 000032       	com	$015654 <FLAG>
 15622: 000207              	rts	pc
015624 <SUBR3>:
 15624: 004767 177766       	jsr	pc, 015616 <SUBR2>
 15630: 000207              	rts	pc
015632 <SUBR4>:
 15632: 004767 177766       	jsr	pc, 015624 <SUBR3>
 15636: 000207              	rts	pc
015640 <SUBR5>:
 15640: 004767 177766       	jsr	pc, 015632 <SUBR4>
 15644: 000207              	rts	pc
015646 <SUBR6>:
 15646: 004767 177766       	jsr	pc, 015640 <SUBR5>
 15652: 000207              	rts	pc
015654 <FLAG>:
 15654: 000000              	halt
015656 <PFAIL>:
 15656: 010046              	mov	r0, -(sp)
 15660: 010146              	mov	r1, -(sp)
 15662: 010246              	mov	r2, -(sp)
 15664: 010346              	mov	r3, -(sp)
 15666: 010446              	mov	r4, -(sp)
 15670: 010546              	mov	r5, -(sp)
 15672: 016746 162126       	mov	$18 <.text+022>, -(sp)
 15676: 010667 000010       	mov	sp, $015712 <SAVR6>
 15702: 012767 015714 162114	mov	$7116, $024 <.text+024>
 15710: 000000              	halt
015712 <SAVR6>:
 15712: 000000              	halt
015714 <RESTART>:
 15714: 016706 177772       	mov	$015710 <PFAIL+032>, sp
 15720: 012667 162100       	mov	(sp)+, $024 <.text+024>
 15724: 012605              	mov	(sp)+, r5
 15726: 012604              	mov	(sp)+, r4
 15730: 012603              	mov	(sp)+, r3
 15732: 012602              	mov	(sp)+, r2
 15734: 012601              	mov	(sp)+, r1
 15736: 012600              	mov	(sp)+, r0
 15740: 000002              	rti
015742 <FACTOR>:
 15742: 000000              	halt
015744 <B>:
 15744: 125252              	cmpb	*-(r2), *-(r2)
 15746: 015744              	mov	*-(pc), -(r4)
 15750: 052525              	bis	(r5)+, (r5)+
 15752: 000000              	halt
015754 <A>:
 15754: 177777 015760       	ldcff	*$033740 <.bss+015556>, fr3
 15760: 125252              	cmpb	*-(r2), *-(r2)
 15762: 015764 052525       	mov	*-(pc), 21845(r4)
015766 <C>:
 15766: 000000              	halt
 15770: 015766 000000       	mov	*-(pc), 0(sp)
 15774: 000000              	halt
015776 <TEMP>:
 15776: 000000              	halt
 16000: 015776 000000       	mov	*-(pc), *0(sp)
 16004: 000000              	halt
016006 <D>:
 16006: 000000              	halt
016010 <Y>:
 16010: 000000              	halt
016012 <X>:
 16012: 000000              	halt
 16014: 000000              	halt
 16016: 000000              	halt
 16020: 000000              	halt
 16022: 000000              	halt
 16024: 000000              	halt
 16026: 000000              	halt
 16030: 000000              	halt
 16032: 000000              	halt
 16034: 000000              	halt
 16036: 000000              	halt
 16040: 000000              	halt
 16042: 000000              	halt
 16044: 000000              	halt
 16046: 000000              	halt
 16050: 000000              	halt
 16052: 000000              	halt
 16054: 000000              	halt
 16056: 000000              	halt
 16060: 000000              	halt
 16062: 000000              	halt
 16064: 000000              	halt
 16066: 000000              	halt
 16070: 000000              	halt
 16072: 000000              	halt
 16074: 000000              	halt
 16076: 000000              	halt
 16100: 000000              	halt
 16102: 000000              	halt
 16104: 000000              	halt
 16106: 000000              	halt
 16110: 000000              	halt
 16112: 000000              	halt
016114 <BUFF>:
016114 <FIN>:
 16114: 000000              	halt
 16116: 000001              	wait
016120 <PLIER>:
 16120: 000000              	halt
 16122: 000000              	halt
 16124: 000000              	halt
 16126: 000000              	halt
 16130: 000000              	halt
 16132: 000000              	halt
 16134: 000000              	halt
 16136: 000000              	halt
 16140: 000000              	halt
 16142: 000000              	halt
 16144: 000000              	halt
 16146: 000000              	halt
 16150: 000000              	halt
 16152: 000000              	halt
 16154: 000000              	halt
 16156: 000000              	halt
016160 <SPOINT>:
 16160: 000000              	halt
